((dp0
(((S'Argentina'
p1
S'Brazil'
p2
S'Eastern United States'
p3
S'Peru'
p4
tp5
(S'Central America'
p6
S'Quebec'
p7
S'Venezuela'
p8
S'Western United States'
p9
tp10
tp11
g4
tp12
I242
s(((S'Argentina'
p13
S'Brazil'
p14
S'Eastern United States'
p15
S'Peru'
p16
tp17
(S'Central America'
p18
S'Quebec'
p19
S'Venezuela'
p20
S'Western United States'
p21
tp22
tp23
g14
tp24
I68
s(((g13
g18
g15
g16
tp25
(g14
g19
g20
g21
tp26
tp27
g18
tp28
I121
s(((g13
g14
g18
g15
S'Ontario'
p29
g16
tp30
(g19
g20
g21
tp31
tp32
g18
tp33
I163
s(((g13
g14
g18
g15
g29
g16
g19
g20
tp34
(S'Alberta'
p35
g21
tp36
tp37
g29
tp38
I249
s(((g1
g2
g6
g3
S'Ontario'
p39
g4
g7
g8
tp40
(S'Northwest Territory'
p41
g9
tp42
tp43
g8
tp44
I290
s(((g13
g18
g15
g16
tp45
(g14
g29
g20
g21
tp46
tp47
g15
tp48
I67
s(((S'Alberta'
p49
g1
g2
g6
g3
g39
g4
g7
g8
g9
tp50
(S'Greenland'
p51
tp52
tp53
g9
tp54
I274
s(((g49
g1
g2
g6
g3
g51
g41
g39
g4
g7
g8
g9
tp55
(ttp56
g3
tp57
I280
s(((g49
g1
g2
g6
g3
g51
g39
g4
g7
g9
tp58
(g8
tp59
tp60
g9
tp61
I451
s(((g1
g6
tp62
(g2
g4
g7
g8
g9
tp63
tp64
g1
tp65
I270
s(((g35
g13
g14
g18
g15
g29
g16
g19
tp66
(g20
g21
tp67
tp68
g14
tp69
I456
s(((g13
g14
tp70
(g35
g18
g19
g20
g21
tp71
tp72
g13
tp73
I179
s(((g49
g1
g2
g6
g3
g39
g4
g7
tp74
(g8
g9
tp75
tp76
g4
tp77
I451
s(((g1
g2
g6
g3
g4
g7
tp78
(g39
g8
g9
tp79
tp80
g7
tp81
I306
s(((g49
g1
g2
g6
g39
g4
g7
g8
tp82
(g3
g9
tp83
tp84
g8
tp85
I258
s(((g13
g14
g15
g16
tp86
(g18
g29
g20
g21
tp87
tp88
g15
tp89
I81
s(((g1
g2
g6
g8
tp90
(g39
g4
g7
g9
tp91
tp92
g8
tp93
I170
s(((g13
g16
tp94
(g14
g18
g19
g20
g21
tp95
tp96
g16
tp97
I67
s(((g1
g2
tp98
(g6
g4
g7
g8
g9
tp99
tp100
g2
tp101
I446
s(((g49
g1
g2
g6
g3
g51
g41
g39
g4
g7
g8
g9
tp102
(ttp103
g51
tp104
I274
s(((g2
g6
g3
g39
g4
g8
tp105
(g1
g7
g9
tp106
tp107
g8
tp108
I22
s(((g49
g1
g2
g6
g3
g51
g41
g39
g4
g7
g8
g9
tp109
(ttp110
g2
tp111
I275
s(((g1
g2
g6
g4
tp112
(g39
g7
g8
g9
tp113
tp114
g4
tp115
I354
s(((g13
g14
g15
g16
tp116
(g35
g18
g20
g21
tp117
tp118
g16
tp119
I80
s(((g14
g18
tp120
(g13
g29
g16
g20
g21
tp121
tp122
g18
tp123
I84
s(((g2
g4
tp124
(g1
g3
g7
g8
g9
tp125
tp126
g4
tp127
I18
s(((g1
g2
g6
g3
tp128
(g4
g7
g8
g9
tp129
tp130
g6
tp131
I451
s(((g13
g14
tp132
(g35
g15
g16
g20
g21
tp133
tp134
g13
tp135
I278
s(((g13
g16
tp136
(g14
g15
g29
g20
g21
tp137
tp138
g16
tp139
I65
s(((g13
g18
g15
g16
tp140
(g14
g19
g20
g21
tp141
tp142
g15
tp143
I226
s(((g13
g18
tp144
(g14
g15
g16
g20
g21
tp145
tp146
g18
tp147
I314
s(((g1
g2
g6
g39
g4
g7
tp148
(g3
g8
g9
tp149
tp150
g7
tp151
I258
s(((g35
g13
g14
g18
g15
g29
g16
g19
tp152
(g20
g21
tp153
tp154
g29
tp155
I668
s(((g13
g14
g18
g15
tp156
(g35
g16
g20
g21
tp157
tp158
g18
tp159
I213
s(((g1
g2
tp160
(g39
g4
g7
g8
g9
tp161
tp162
g1
tp163
I166
s(((g13
g16
tp164
(g14
g18
g19
g20
g21
tp165
tp166
g13
tp167
I118
s(((g1
g2
tp168
(g6
g3
g7
g8
g9
tp169
tp170
g1
tp171
I74
s(((g1
g2
tp172
(g3
g39
g4
g8
g9
tp173
tp174
g2
tp175
I415
s(((g1
g2
g6
g3
g39
g8
tp176
(g4
g7
g9
tp177
tp178
g8
tp179
I79
s(((g49
g1
g2
g6
g3
g51
g39
g7
g8
g9
tp180
(g4
tp181
tp182
g8
tp183
I21
s(((g49
g1
g2
g6
g3
g4
g7
g8
tp184
(g39
g9
tp185
tp186
g7
tp187
I154
s(((g13
g14
g18
g15
g29
g16
tp188
(g19
g20
g21
tp189
tp190
g13
tp191
I271
s(((g49
g1
g2
g6
g3
g39
g4
g9
tp192
(g7
g8
tp193
tp194
g9
tp195
I49
s(((g1
g2
g6
g3
g51
g39
g4
g7
g8
g9
tp196
(g49
tp197
tp198
g9
tp199
I211
s(((g35
g13
g14
g18
g15
g29
g16
g19
tp200
(g20
g21
tp201
tp202
g18
tp203
I338
s(((g1
g2
g6
g3
tp204
(g4
g7
g8
g9
tp205
tp206
g1
tp207
I33
s(((g1
g2
g6
g3
g4
g7
tp208
(g51
g8
g9
tp209
tp210
g7
tp211
I274
s(((g13
g18
g15
g29
g16
g19
tp212
(g14
g20
g21
tp213
tp214
g15
tp215
I60
s(((g13
g14
g18
g16
tp216
(g35
g29
g20
g21
tp217
tp218
g16
tp219
I249
s(((g1
g2
tp220
(g6
g39
g4
g8
g9
tp221
tp222
g2
tp223
I15
s(((g13
g14
g18
g15
g16
g19
tp224
(g29
g20
g21
tp225
tp226
g13
tp227
I88
s(((S'Argentina'
p228
S'Brazil'
p229
S'Central America'
p230
S'Eastern United States'
p231
S'Ontario'
p232
S'Peru'
p233
tp234
(S'Quebec'
p235
S'Venezuela'
p236
S'Western United States'
p237
tp238
tp239
g233
tp240
I874
s(((g1
g2
g6
g4
tp241
(g49
g7
g8
g9
tp242
tp243
g4
tp244
I211
s(((g49
g1
g2
g6
g3
g39
g7
g8
tp245
(g4
g9
tp246
tp247
g8
tp248
I420
s(((g13
g14
g18
g16
tp249
(g35
g19
g20
g21
tp250
tp251
g14
tp252
I82
s(((g49
g1
g2
g6
g3
g51
g39
g4
g7
g8
tp253
(g9
tp254
tp255
g7
tp256
I79
s(((g49
g1
g2
g3
g39
g4
g7
g9
tp257
(g6
g8
tp258
tp259
g9
tp260
I39
s(((g1
g2
g6
g3
g39
g7
tp261
(g4
g8
g9
tp262
tp263
g3
tp264
I34
s(((g49
g1
g2
g3
g51
g39
g4
g7
g8
g9
tp265
(g6
tp266
tp267
g9
tp268
I283
s(((g49
g2
g6
g3
g39
g4
g7
g8
tp269
(g1
g9
tp270
tp271
g8
tp272
I260
s(((g13
g16
tp273
(g35
g14
g19
g20
g21
tp274
tp275
g16
tp276
I81
s(((g13
g14
g16
g19
tp277
(g18
g15
g20
g21
tp278
tp279
g19
tp280
I16
s(((g1
g2
g6
g4
tp281
(g3
g7
g8
g9
tp282
tp283
g2
tp284
I49
s(((g13
g14
tp285
(g35
g18
g16
g20
g21
tp286
tp287
g13
tp288
I143
s(((g49
g1
g2
g6
g3
g51
g41
g39
g4
g7
g8
g9
tp289
(ttp290
g4
tp291
I441
s(((g13
g14
g18
g16
tp292
(g29
g19
g20
g21
tp293
tp294
g13
tp295
I99
s(((g13
g16
tp296
(g14
g15
g19
g20
g21
tp297
tp298
g13
tp299
I279
s(((g49
g1
g2
g6
g3
g51
g39
g4
g7
g8
tp300
(g9
tp301
tp302
g39
tp303
I154
s(((g13
g14
g18
g15
g19
g20
tp304
(g35
g16
g21
tp305
tp306
g20
tp307
I406
s(((g49
g1
g2
g6
g3
g4
g7
g9
tp308
(g39
g8
tp309
tp310
g9
tp311
I17
s(((g1
g2
g3
g4
tp312
(g6
g7
g8
g9
tp313
tp314
g3
tp315
I105
s(((g49
g1
g2
g6
g3
g39
g4
g8
tp316
(g7
g9
tp317
tp318
g8
tp319
I354
s(((g1
g2
g3
g7
tp320
(g6
g4
g8
g9
tp321
tp322
g7
tp323
I56
s(((g1
g2
g6
g3
g39
g7
tp324
(g4
g8
g9
tp325
tp326
g7
tp327
I451
s(((g13
g18
tp328
(g35
g14
g16
g20
g21
tp329
tp330
g13
tp331
I46
s(((g49
g1
g6
g3
g39
g4
g7
g8
tp332
(g2
g9
tp333
tp334
g4
tp335
I19
s(((g14
g16
tp336
(g13
g29
g19
g20
g21
tp337
tp338
g16
tp339
I97
s(((g1
g2
tp340
(g6
g39
g7
g8
g9
tp341
tp342
g2
tp343
I302
s(((g2
g6
g3
g4
tp344
(g1
g7
g8
g9
tp345
tp346
g3
tp347
I22
s(((g49
g1
g2
g6
g3
g51
g41
g39
g4
g7
g8
g9
tp348
(ttp349
g41
tp350
I290
s(((g1
g2
g6
g3
g39
g4
g7
g8
tp351
(g49
g9
tp352
tp353
g8
tp354
I211
s(((g1
g2
g3
g39
g4
g7
tp355
(g6
g8
g9
tp356
tp357
g7
tp358
I242
s(((g49
g1
g2
g3
g39
g4
g7
g8
tp359
(g6
g9
tp360
tp361
g4
tp362
I17
s(((g1
g4
tp363
(g2
g3
g7
g8
g9
tp364
tp365
g4
tp366
I46
s(((g14
g18
g15
g29
g16
g19
tp367
(g13
g20
g21
tp368
tp369
g16
tp370
I228
s(((g1
g2
g6
g4
tp371
(g39
g7
g8
g9
tp372
tp373
g6
tp374
I306
s(((g49
g1
g2
g6
g3
g51
g41
g39
g4
g7
g8
g9
tp375
(ttp376
g39
tp377
I306
s(((g18
g16
tp378
(g13
g14
g19
g20
g21
tp379
tp380
g16
tp381
I90
s(((g49
g1
g2
g6
g3
g51
g39
g4
g8
g9
tp382
(g7
tp383
tp384
g9
tp385
I354
s(((g13
g18
g15
g29
g16
g19
tp386
(g14
g20
g21
tp387
tp388
g29
tp389
I78
s(((g13
g14
g18
g15
g29
g16
tp390
(g19
g20
g21
tp391
tp392
g14
tp393
I379
s(((g49
g1
g2
g6
g3
g51
g39
g4
g7
g8
tp394
(g9
tp395
tp396
g51
tp397
I138
s(((g1
g4
tp398
(g2
g39
g7
g8
g9
tp399
tp400
g4
tp401
I150
s(((g13
g14
g18
g15
g16
g19
tp402
(g35
g20
g21
tp403
tp404
g15
tp405
I282
s(((g13
g14
g15
g16
tp406
(g18
g29
g20
g21
tp407
tp408
g16
tp409
I338
s(((g1
g2
g6
g3
g39
g4
g7
g8
tp410
(g51
g9
tp411
tp412
g7
tp413
I138
s(((g2
g6
tp414
(g1
g4
g7
g8
g9
tp415
tp416
g6
tp417
I480
s(((g1
g2
g6
g3
g51
g39
g4
g7
g8
g9
tp418
(g49
tp419
tp420
g8
tp421
I18
s(((S'Alberta'
p422
g228
g229
g230
g231
S'Greenland'
p423
g232
g233
g235
g236
tp424
(g237
tp425
tp426
g236
tp427
I4349
s(((g1
g2
tp428
(g6
g3
g4
g8
g9
tp429
tp430
g2
tp431
I12
s(((g1
g2
tp432
(g3
g4
g7
g8
g9
tp433
tp434
g1
tp435
I295
s(((g1
g2
g6
g3
g39
g4
tp436
(g7
g8
g9
tp437
tp438
g3
tp439
I140
s(((g49
g2
g6
g3
g51
g39
g4
g7
g8
g9
tp440
(g1
tp441
tp442
g9
tp443
I260
s(((g13
g14
g18
g15
g29
g16
g19
g20
tp444
(g35
g21
tp445
tp446
g15
tp447
I59
s(((g13
g14
g18
g15
g16
g19
tp448
(g35
g20
g21
tp449
tp450
g14
tp451
I48
s(((g13
g18
g15
g19
tp452
(g14
g16
g20
g21
tp453
tp454
g15
tp455
I318
s(((g14
g18
g15
g16
tp456
(g13
g29
g20
g21
tp457
tp458
g16
tp459
I88
s(((g49
g1
g2
g6
g3
g51
g41
g39
g4
g7
g8
g9
tp460
(ttp461
g6
tp462
I322
s(((g1
g2
tp463
(g49
g4
g7
g8
g9
tp464
tp465
g2
tp466
I206
s(((g35
g13
g14
g18
g15
g29
g16
g19
tp467
(g20
g21
tp468
tp469
g13
tp470
I228
s(((g13
g14
g18
g16
tp471
(g35
g15
g20
g21
tp472
tp473
g16
tp474
I282
s(((g13
g14
tp475
(g35
g18
g15
g20
g21
tp476
tp477
g14
tp478
I58
s(((g1
g2
g6
g3
g39
g4
tp479
(g7
g8
g9
tp480
tp481
g39
tp482
I453
s(((g49
g1
g2
g6
g51
g39
g4
g7
g8
g9
tp483
(g3
tp484
tp485
g9
tp486
I258
s(((g1
g2
g6
g3
g39
g7
tp487
(g4
g8
g9
tp488
tp489
g39
tp490
I420
s(((g13
g14
g18
g15
g16
g19
tp491
(g29
g20
g21
tp492
tp493
g15
tp494
I397
s(((g49
g1
g2
g6
g3
g51
g39
g7
g8
g9
tp495
(g4
tp496
tp497
g9
tp498
I420
s(((g1
g2
g6
g4
tp499
(g3
g7
g8
g9
tp500
tp501
g4
tp502
I258
s(((g49
g1
g2
g6
g3
g51
g41
g39
g4
g7
g8
g9
tp503
(ttp504
g7
tp505
I354
s(((g1
g6
g3
g39
g4
g8
tp506
(g2
g7
g9
tp507
tp508
g8
tp509
I49
s(((g1
g6
g3
g39
g7
g8
tp510
(g2
g4
g9
tp511
tp512
g8
tp513
I19
s(((g1
g2
tp514
(g49
g3
g4
g8
g9
tp515
tp516
g2
tp517
I17
s(((g13
g14
tp518
(g18
g15
g29
g20
g21
tp519
tp520
g13
tp521
I79
s(((g13
g14
g18
g15
g16
g19
tp522
(g29
g20
g21
tp523
tp524
g14
tp525
I102
s(((g49
g1
g2
g6
g3
g51
g39
g4
g7
g8
tp526
(g9
tp527
tp528
g3
tp529
I122
s(((g1
g2
g6
g3
tp530
(g49
g4
g8
g9
tp531
tp532
g3
tp533
I18
s(((g1
g6
g3
g4
tp534
(g2
g7
g8
g9
tp535
tp536
g4
tp537
I275
s(((g49
g2
g6
g3
g39
g4
g7
g8
tp538
(g1
g9
tp539
tp540
g7
tp541
I22
s(((g1
g2
g6
g4
tp542
(g51
g7
g8
g9
tp543
tp544
g6
tp545
I138
s(((g13
g14
g15
g16
tp546
(g18
g19
g20
g21
tp547
tp548
g13
tp549
I95
s(((g1
g2
g6
g3
g39
g4
g7
g9
tp550
(g49
g8
tp551
tp552
g9
tp553
I18
s(((g1
g6
g3
g39
g4
g7
tp554
(g2
g8
g9
tp555
tp556
g7
tp557
I226
s(((g35
g13
g14
g18
g15
g29
g16
g19
tp558
(g20
g21
tp559
tp560
g35
tp561
I410
s(((g422
g228
g229
g230
g231
g423
S'Northwest Territory'
p562
g232
g233
g235
g236
g237
tp563
(ttp564
g237
tp565
I6511
s(((g49
g1
g2
g6
g3
g51
g41
g39
g4
g7
g8
g9
tp566
(ttp567
g8
tp568
I563
s(((g1
g2
g6
g3
g4
g7
tp569
(g41
g8
g9
tp570
tp571
g7
tp572
I290
s(((g13
g14
g18
g29
g16
g19
tp573
(g15
g20
g21
tp574
tp575
g18
tp576
I16
s(((g13
g14
g18
g15
tp577
(g35
g16
g20
g21
tp578
tp579
g14
tp580
I193
s(((g49
g1
g2
g6
g3
g51
g39
g4
g7
g9
tp581
(g8
tp582
tp583
g39
tp584
I17
s(((g1
g2
g6
g4
tp585
(g39
g7
g8
g9
tp586
tp587
g2
tp588
I154
s(((g13
g18
g15
g16
tp589
(g35
g14
g20
g21
tp590
tp591
g16
tp592
I48
s(((g49
g1
g2
g6
g3
g51
g39
g4
g7
g8
tp593
(g9
tp594
tp595
g2
tp596
I19
s(((g1
g2
g6
g39
g4
g7
tp597
(g3
g8
g9
tp598
tp599
g4
tp600
I22
s(((g49
g1
g2
g6
g51
g39
g4
g7
g8
g9
tp601
(g3
tp602
tp603
g8
tp604
I22
s(((g1
g2
tp605
(g41
g4
g7
g8
g9
tp606
tp607
g2
tp608
I286
s(((g1
g2
tp609
(g6
g4
g7
g8
g9
tp610
tp611
g1
tp612
I291
s(((g49
g1
g2
g3
g39
g4
g7
g8
tp613
(g6
g9
tp614
tp615
g7
tp616
I105
s(((g1
g2
g6
g3
g4
g7
tp617
(g49
g8
g9
tp618
tp619
g4
tp620
I18
s(((g1
g6
tp621
(g2
g4
g7
g8
g9
tp622
tp623
g6
tp624
I96
s(((g1
g2
g6
g7
tp625
(g3
g4
g8
g9
tp626
tp627
g6
tp628
I13
s(((g1
g2
g6
g39
g4
g8
tp629
(g3
g7
g9
tp630
tp631
g8
tp632
I122
s(((g1
g2
g6
g4
tp633
(g51
g7
g8
g9
tp634
tp635
g4
tp636
I274
s(((g49
g1
g2
g6
g3
g39
g4
g7
g8
g9
tp637
(g41
tp638
tp639
g9
tp640
I290
s(((g49
g1
g2
g6
g3
g39
g7
g9
tp641
(g4
g8
tp642
tp643
g9
tp644
I34
s(((g49
g1
g2
g6
g39
g4
g7
g9
tp645
(g3
g8
tp646
tp647
g9
tp648
I22
s(((g13
g14
g18
g15
g16
g19
tp649
(g29
g20
g21
tp650
tp651
g18
tp652
I81
s(((g13
g16
tp653
(g14
g15
g29
g20
g21
tp654
tp655
g13
tp656
I18
s(((g49
g1
g2
g6
g3
g39
g7
g8
tp657
(g4
g9
tp658
tp659
g7
tp660
I170
s(((g1
g2
g6
g3
tp661
(g39
g4
g8
g9
tp662
tp663
g6
tp664
I17
s(((g2
g6
tp665
(g1
g4
g7
g8
g9
tp666
tp667
g2
tp668
I30
s(((g13
g14
g18
g16
tp669
(g15
g29
g20
g21
tp670
tp671
g18
tp672
I356
s(((g13
g14
g18
g29
g16
g19
tp673
(g15
g20
g21
tp674
tp675
g29
tp676
I356
s(((g13
g14
g15
g29
g16
g19
tp677
(g18
g20
g21
tp678
tp679
g29
tp680
I338
s(((g1
g2
g6
g3
tp681
(g4
g7
g8
g9
tp682
tp683
g2
tp684
I79
s(((g228
g229
g230
g231
tp685
(g233
g235
g236
g237
tp686
tp687
g231
tp688
I874
s(((g49
g1
g2
g6
g3
g51
g39
g4
g7
g9
tp689
(g8
tp690
tp691
g4
tp692
I46
s(((g13
g14
tp693
(g18
g15
g29
g20
g21
tp694
tp695
g14
tp696
I352
s(((g1
g6
g3
g7
tp697
(g2
g4
g8
g9
tp698
tp699
g7
tp700
I19
s(((g49
g1
g2
g6
g3
g51
g41
g39
g4
g7
g8
g9
tp701
(ttp702
g1
tp703
I260
s(((g13
g18
tp704
(g35
g14
g16
g20
g21
tp705
tp706
g18
tp707
I190
s(((g49
g1
g2
g6
g3
g51
g39
g4
g7
g8
tp708
(g9
tp709
tp710
g6
tp711
I81
s(((g1
g2
g6
g3
tp712
(g39
g4
g8
g9
tp713
tp714
g3
tp715
I420
s(((g49
g1
g2
g3
g51
g39
g4
g7
g8
g9
tp716
(g6
tp717
tp718
g8
tp719
I39
s(((g14
g16
tp720
(g13
g18
g19
g20
g21
tp721
tp722
g14
tp723
I93
s(((g14
g18
g15
g16
tp724
(g13
g19
g20
g21
tp725
tp726
g14
tp727
I61
s(((g49
g1
g6
g3
g39
g4
g7
g8
tp728
(g2
g9
tp729
tp730
g8
tp731
I226
s(((g1
g2
g6
g3
g4
g8
tp732
(g49
g7
g9
tp733
tp734
g8
tp735
I663
s(((g14
g16
tp736
(g13
g18
g19
g20
g21
tp737
tp738
g16
tp739
I206
s(((g1
g2
g6
g3
g4
g7
tp740
(g39
g8
g9
tp741
tp742
g4
tp743
I17
s(((g422
g228
g229
g230
g231
g232
g233
g235
tp744
(g236
g237
tp745
tp746
g235
tp747
I1877
s(((g13
g14
g18
g16
g19
g20
tp748
(g35
g15
g21
tp749
tp750
g20
tp751
I59
s(((g13
g14
tp752
(g35
g29
g16
g20
g21
tp753
tp754
g14
tp755
I245
s(((g49
g1
g2
g3
g39
g4
g7
g8
tp756
(g6
g9
tp757
tp758
g8
tp759
I242
s(((g13
g14
tp760
(g15
g29
g16
g20
g21
tp761
tp762
g13
tp763
I374
s(((g49
g1
g6
g3
g51
g39
g4
g7
g8
g9
tp764
(g2
tp765
tp766
g9
tp767
I275
s(((g13
g18
g15
g29
g16
g19
tp768
(g14
g20
g21
tp769
tp770
g16
tp771
I318
s(((g14
g18
g15
g19
tp772
(g13
g16
g20
g21
tp773
tp774
g19
tp775
I228
s(((g1
g2
g6
g3
g39
g4
g7
g8
tp776
(g49
g9
tp777
tp778
g7
tp779
I663
s(((g13
g18
tp780
(g14
g29
g16
g20
g21
tp781
tp782
g18
tp783
I110
s(((g13
g14
g18
g16
tp784
(g15
g19
g20
g21
tp785
tp786
g13
tp787
I91
s(((g1
g2
tp788
(g51
g4
g7
g8
g9
tp789
tp790
g2
tp791
I270
s(((g13
g14
g18
g15
g16
g20
tp792
(g35
g29
g21
tp793
tp794
g20
tp795
I249
s(((g49
g1
g2
g6
g3
g51
g39
g4
g7
g9
tp796
(g8
tp797
tp798
g7
tp799
I49
s(((g49
g1
g2
g6
g3
g51
g4
g7
g8
g9
tp800
(g39
tp801
tp802
g9
tp803
I306
s(((g1
g2
g6
g4
tp804
(g41
g7
g8
g9
tp805
tp806
g4
tp807
I290
s(((g49
g1
g2
g6
g3
g39
g7
g9
tp808
(g4
g8
tp809
tp810
g7
tp811
I33
s(((g49
g1
g2
g6
g3
g51
g39
g4
g7
g8
tp812
(g9
tp813
tp814
g1
tp815
I22
s(((g13
g14
g18
g15
g16
g19
tp816
(g35
g20
g21
tp817
tp818
g18
tp819
I80
s(((g2
g6
g3
g39
g4
g7
tp820
(g1
g8
g9
tp821
tp822
g7
tp823
I260
s(((g1
g2
g6
g3
g4
g8
tp824
(g39
g7
g9
tp825
tp826
g8
tp827
I154
s(((g13
g14
tp828
(g35
g18
g16
g20
g21
tp829
tp830
g14
tp831
I145
s(((g1
g2
g6
g4
tp832
(g3
g7
g8
g9
tp833
tp834
g6
tp835
I122
s(((g13
g14
tp836
(g18
g29
g16
g20
g21
tp837
tp838
g13
tp839
I334
s(((g49
g1
g2
g6
g3
g51
g39
g4
g7
g8
tp840
(g9
tp841
tp842
g4
tp843
I170
s(((g1
g2
g3
g39
g4
g7
tp844
(g6
g8
g9
tp845
tp846
g4
tp847
I39
s(((g228
g229
tp848
(g231
g233
g235
g236
g237
tp849
tp850
g229
tp851
I949
s(((g1
g2
tp852
(g39
g4
g7
g8
g9
tp853
tp854
g2
tp855
I350
s(((g49
g1
g2
g6
g39
g4
g7
g8
tp856
(g3
g9
tp857
tp858
g7
tp859
I122
s(((g13
g14
g18
g16
tp860
(g35
g15
g20
g21
tp861
tp862
g18
tp863
I59
s(((g1
g2
tp864
(g6
g3
g7
g8
g9
tp865
tp866
g2
tp867
I160
s(((g1
g2
g6
g4
tp868
(g49
g7
g8
g9
tp869
tp870
g6
tp871
I581
s(((g13
g18
g16
g19
tp872
(g14
g15
g20
g21
tp873
tp874
g19
tp875
I60
s(((g1
g2
g6
g3
g4
g7
tp876
(g49
g8
g9
tp877
tp878
g7
tp879
I211
s(((g1
g2
tp880
(g6
g51
g7
g8
g9
tp881
tp882
g2
tp883
I134
s(((g14
g16
tp884
(g13
g15
g19
g20
g21
tp885
tp886
g14
tp887
I89
s(((g13
g14
g18
g16
tp888
(g15
g29
g20
g21
tp889
tp890
g16
tp891
I378
s(((g1
g2
g6
g3
g4
g8
tp892
(g51
g7
g9
tp893
tp894
g8
tp895
I138
s(((g1
g2
tp896
(g49
g6
g7
g8
g9
tp897
tp898
g2
tp899
I493
s(((g13
g14
g18
g15
g29
g16
g19
g20
tp900
(g35
g21
tp901
tp902
g16
tp903
I406
s(((g49
g1
g6
g3
g39
g4
g7
g8
tp904
(g2
g9
tp905
tp906
g7
tp907
I49
s(((g13
g18
g15
g16
tp908
(g14
g19
g20
g21
tp909
tp910
g13
tp911
I32
s(((g13
g14
g18
g16
tp912
(g15
g29
g20
g21
tp913
tp914
g14
tp915
I19
s(((g1
g2
g3
g39
g4
g8
tp916
(g6
g7
g9
tp917
tp918
g8
tp919
I105
s(((g1
g2
g6
g7
tp920
(g3
g4
g8
g9
tp921
tp922
g7
tp923
I43
s(((g2
g6
g3
g4
tp924
(g1
g7
g8
g9
tp925
tp926
g4
tp927
I260
s(((g13
g18
g15
g16
tp928
(g14
g29
g20
g21
tp929
tp930
g16
tp931
I113
s(((g49
g1
g2
g6
g3
g4
g7
g8
tp932
(g39
g9
tp933
tp934
g8
tp935
I306
s(((g49
g1
g2
g6
g3
g51
g39
g4
g7
g8
tp936
(g9
tp937
tp938
g49
tp939
I1377
s(((g49
g1
g2
g6
g3
g51
g41
g39
g4
g7
g8
g9
tp940
(ttp941
g49
tp942
I229
s(((g14
g18
g15
g16
tp943
(g13
g19
g20
g21
tp944
tp945
g18
tp946
I210
s(((g1
g2
g3
g39
g7
g8
tp947
(g6
g4
g9
tp948
tp949
g8
tp950
I17
s(((g1
g2
g6
g3
g39
g4
g7
g8
tp951
(g51
g9
tp952
tp953
g8
tp954
I274
s(((g49
g1
g2
g6
g3
g39
g4
g8
tp955
(g7
g9
tp956
tp957
g4
tp958
I79
s(((g1
g2
g6
g3
g39
g8
tp959
(g4
g7
g9
tp960
tp961
g39
tp962
I170
s(((g1
g2
g6
g3
g39
g9
tp963
(g4
g7
g8
tp964
tp965
g9
tp966
I33
s(((g35
g13
g14
g18
g15
g29
g16
g19
tp967
(g20
g21
tp968
tp969
g15
tp970
I372
s(dp971
(g11
g4
tp972
F-2.5154283967530318
s(g23
g14
tp973
F-2.850016418593902
s(g27
g18
tp974
F-2.85001664796748
s(g32
g18
tp975
F-3.5154283857081015
s(g37
g29
tp976
F-0.999995955420295
s(g43
g8
tp977
F-0.9981713646916961
s(g47
g15
tp978
F-2.850016661016361
s(g53
g9
tp979
F-0.998356343631922
s(g56
g3
tp980
F-0.9997889921028874
s(g60
g9
tp981
F-0.9248840353835048
s(g64
g1
tp982
F-1.847230185003362
s(g68
g14
tp983
F-0.995563295660722
s(g72
g13
tp984
F-1.8499883840032723
s(g76
g4
tp985
F-0.8835292800335129
s(g80
g7
tp986
F-0.9910836162605845
s(g84
g8
tp987
F-0.9994313666483543
s(g88
g15
tp988
F-2.839959697133561
s(g92
g8
tp989
F-2.725602064331223
s(g96
g16
tp990
F-1.8500166546101682
s(g100
g2
tp991
F-1.5591617125996358
s(g103
g51
tp992
F-0.999195659487127
s(g107
g8
tp993
F-1.0
s(g110
g2
tp994
F-0.9999306011493554
s(g114
g4
tp995
F-2.437604225430328
s(g118
g16
tp996
F-2.8500163632448756
s(g122
g18
tp997
F-1.850016661016369
s(g126
g4
tp998
F-1.8500273864001988
s(g130
g6
tp999
F-2.107942056214043
s(g134
g13
tp1000
F-1.8499209452818346
s(g138
g16
tp1001
F-1.850016661016369
s(g142
g15
tp1002
F-2.8500159276030117
s(g146
g18
tp1003
F-1.8485452722927063
s(g150
g7
tp1004
F-0.9990765267924758
s(g154
g29
tp1005
F-1.644384955271757
s(g158
g18
tp1006
F-2.8499778608782975
s(g162
g1
tp1007
F-1.8499872796838952
s(g166
g13
tp1008
F-1.8500166610163689
s(g170
g1
tp1009
F-1.8500221172509406
s(g174
g2
tp1010
F-1.638949702275188
s(g178
g8
tp1011
F-2.8772225030572027
s(g182
g8
tp1012
F-1.0
s(g186
g7
tp1013
F-0.9999999999945729
s(g190
g13
tp1014
F-1.999999980338307
s(g194
g9
tp1015
F-1.0
s(g198
g9
tp1016
F-0.9999999936808658
s(g202
g18
tp1017
F-0.9947372413533885
s(g206
g1
tp1018
F-2.8486444094580943
s(g210
g7
tp1019
F-0.9982392345061243
s(g214
g15
tp1020
F-1.0
s(g218
g16
tp1021
F-0.9999962079572803
s(g222
g2
tp1022
F-1.8500253383530612
s(g226
g13
tp1023
F-1.0
s(g239
g233
tp1024
F-1.2502116122471938
s(g243
g4
tp1025
F-0.9999999937954874
s(g247
g8
tp1026
F-0.9186559381892042
s(g251
g14
tp1027
F-0.9999997160966795
s(g255
g7
tp1028
F-0.9999958311541028
s(g259
g9
tp1029
F-1.0
s(g263
g3
tp1030
F-1.0
s(g267
g9
tp1031
F-0.9999672855417615
s(g271
g8
tp1032
F-0.9999877224351701
s(g275
g16
tp1033
F-1.8500164321483723
s(g279
g19
tp1034
F-2.850016674909072
s(g283
g2
tp1035
F-1.0
s(g287
g13
tp1036
F-1.8500166610151654
s(g290
g4
tp1037
F-0.9332740321973381
s(g294
g13
tp1038
F-0.9999999999992265
s(g298
g13
tp1039
F-1.8500166602351247
s(g302
g39
tp1040
F-0.9999999999946321
s(g306
g20
tp1041
F-0.9933396210630188
s(g310
g9
tp1042
F-1.0
s(g314
g3
tp1043
F-2.8500083074265348
s(g318
g8
tp1044
F-0.9400237369725322
s(g322
g7
tp1045
F-2.5578214504286074
s(g326
g7
tp1046
F-1.9158175836620293
s(g330
g13
tp1047
F-1.850016661016369
s(g334
g4
tp1048
F-1.0
s(g338
g16
tp1049
F-1.850016661016028
s(g342
g2
tp1050
F-1.818834951787196
s(g346
g3
tp1051
F-1.0
s(g349
g41
tp1052
F-0.9981713646916961
s(g353
g8
tp1053
F-0.9999999935698907
s(g357
g7
tp1054
F-0.9998289911133349
s(g361
g4
tp1055
F-1.0
s(g365
g4
tp1056
F-1.850024701760971
s(g369
g16
tp1057
F-0.9999689333430731
s(g373
g6
tp1058
F-0.9958337773382829
s(g376
g39
tp1059
F-0.9957782329377236
s(g380
g16
tp1060
F-1.850016661016369
s(g384
g9
tp1061
F-0.9740331900718642
s(g388
g29
tp1062
F-0.9999999999999999
s(g392
g14
tp1063
F-1.9999137569964571
s(g396
g51
tp1064
F-0.99999999999998
s(g400
g4
tp1065
F-1.850005717234373
s(g404
g15
tp1066
F-0.9998101774547958
s(g408
g16
tp1067
F-2.817505531179438
s(g412
g7
tp1068
F-0.999999999999983
s(g416
g6
tp1069
F-1.7084296582208909
s(g420
g8
tp1070
F-1.0
s(g426
g236
tp1071
F-0.7847103969987512
s(g430
g2
tp1072
F-1.8500235817674864
s(g434
g1
tp1073
F-1.8469571250248857
s(g438
g3
tp1074
F-1.9999998749083254
s(g442
g9
tp1075
F-0.9999877121522591
s(g446
g15
tp1076
F-0.9999999992460091
s(g450
g14
tp1077
F-1.0
s(g454
g15
tp1078
F-0.9981326536082847
s(g458
g16
tp1079
F-1.0
s(g461
g6
tp1080
F-0.9999877771478065
s(g465
g2
tp1081
F-1.8499382089607892
s(g469
g13
tp1082
F-0.9999685490838085
s(g473
g16
tp1083
F-2.8487174162298987
s(g477
g14
tp1084
F-1.8500166607107817
s(g481
g39
tp1085
F-1.5762906863053168
s(g485
g9
tp1086
F-0.9994597402017934
s(g489
g39
tp1087
F-0.9506836130673689
s(g493
g15
tp1088
F-0.9848737599046616
s(g497
g9
tp1089
F-0.9186166242191274
s(g501
g4
tp1090
F-2.3495685136706466
s(g504
g7
tp1091
F-0.9771235305726717
s(g508
g8
tp1092
F-0.9999999983517402
s(g512
g8
tp1093
F-1.0
s(g516
g2
tp1094
F-1.8500224926139883
s(g520
g13
tp1095
F-1.8500166610163689
s(g524
g14
tp1096
F-0.9999999999999999
s(g528
g3
tp1097
F-0.9999999999999999
s(g532
g3
tp1098
F-1.0
s(g536
g4
tp1099
F-2.8327160282126034
s(g540
g7
tp1100
F-1.0
s(g544
g6
tp1101
F-0.9999999999999917
s(g548
g13
tp1102
F-2.8500166573843364
s(g552
g9
tp1103
F-1.0
s(g556
g7
tp1104
F-0.9999927510679926
s(g560
g35
tp1105
F-0.9994060822225144
s(g564
g237
tp1106
F-0.8500166610163691
s(g567
g8
tp1107
F-0.9203709470347289
s(g571
g7
tp1108
F-0.998171364691696
s(g575
g18
tp1109
F-1.0
s(g579
g14
tp1110
F-2.850012199021145
s(g583
g39
tp1111
F-1.0
s(g587
g2
tp1112
F-0.9999999999963507
s(g591
g16
tp1113
F-2.8500164845775
s(g595
g2
tp1114
F-1.0
s(g599
g4
tp1115
F-1.0
s(g603
g8
tp1116
F-1.0
s(g607
g2
tp1117
F-1.8321263841433724
s(g611
g1
tp1118
F-1.8490385925167883
s(g615
g7
tp1119
F-0.9999999999999999
s(g619
g4
tp1120
F-1.0
s(g623
g6
tp1121
F-1.8500014025603857
s(g627
g6
tp1122
F-1.0
s(g631
g8
tp1123
F-0.9999999999999996
s(g635
g4
tp1124
F-0.9993274641012267
s(g639
g9
tp1125
F-0.9981713646916961
s(g643
g9
tp1126
F-1.0
s(g647
g9
tp1127
F-0.9999999999999999
s(g651
g18
tp1128
F-0.9999999999999999
s(g655
g13
tp1129
F-1.850016661016369
s(g659
g7
tp1130
F-0.9999999996356367
s(g663
g6
tp1131
F-1.0
s(g667
g2
tp1132
F-1.8500253483467037
s(g671
g18
tp1133
F-2.781022231810214
s(g675
g29
tp1134
F-0.9889450745502779
s(g679
g29
tp1135
F-0.9939975662585763
s(g683
g2
tp1136
F-2.841191853345463
s(g687
g231
tp1137
F-1.919741946075463
s(g691
g4
tp1138
F-1.0
s(g695
g14
tp1139
F-1.8405132034825467
s(g699
g7
tp1140
F-2.846988355619742
s(g702
g1
tp1141
F-0.9999877122189826
s(g706
g18
tp1142
F-1.8500165020632062
s(g710
g6
tp1143
F-1.0
s(g714
g3
tp1144
F-0.9506834618194226
s(g718
g8
tp1145
F-1.0
s(g722
g14
tp1146
F-1.8500166610163096
s(g726
g14
tp1147
F-1.0
s(g730
g8
tp1148
F-0.9999922682861543
s(g734
g8
tp1149
F-0.7902637084359032
s(g738
g16
tp1150
F-1.8500166590072604
s(g742
g4
tp1151
F-1.0
s(g746
g235
tp1152
F-0.8679409060160527
s(g750
g20
tp1153
F-0.9999999992518923
s(g754
g14
tp1154
F-1.8500144543006947
s(g758
g8
tp1155
F-0.9998663978873048
s(g762
g13
tp1156
F-1.8299618026714337
s(g766
g9
tp1157
F-0.9998766442723803
s(g770
g16
tp1158
F-0.9981326446144466
s(g774
g19
tp1159
F-2.6961820691355447
s(g778
g7
tp1160
F-0.8125221583119405
s(g782
g18
tp1161
F-1.8500166610163689
s(g786
g13
tp1162
F-2.8500166610156
s(g790
g2
tp1163
F-1.8404869337706453
s(g794
g20
tp1164
F-0.9999960021280002
s(g798
g7
tp1165
F-1.0
s(g802
g9
tp1166
F-0.9917470617227443
s(g806
g4
tp1167
F-0.9981713646916959
s(g810
g7
tp1168
F-1.0
s(g814
g1
tp1169
F-1.0
s(g818
g18
tp1170
F-0.9999999999999999
s(g822
g7
tp1171
F-0.9999878745992227
s(g826
g8
tp1172
F-0.9999999999950026
s(g830
g14
tp1173
F-1.850016451077129
s(g834
g6
tp1174
F-2.8499959412739275
s(g838
g13
tp1175
F-1.8456558175329312
s(g842
g4
tp1176
F-0.9999999995994114
s(g846
g4
tp1177
F-1.0
s(g850
g229
tp1178
F-1.3705101531038961
s(g854
g2
tp1179
F-1.7380926063386861
s(g858
g7
tp1180
F-0.9999999999999999
s(g862
g18
tp1181
F-0.999999999554814
s(g866
g2
tp1182
F-1.850016671641277
s(g870
g6
tp1183
F-2.2769001609674095
s(g874
g19
tp1184
F-2.8500166601061636
s(g878
g7
tp1185
F-0.999999993452548
s(g882
g2
tp1186
F-1.8500131265091995
s(g886
g14
tp1187
F-1.8500166610163602
s(g890
g16
tp1188
F-2.602948761725798
s(g894
g8
tp1189
F-0.9999999999999866
s(g898
g2
tp1190
F-1.584833572569197
s(g902
g16
tp1191
F-0.9934930356604854
s(g906
g7
tp1192
F-0.9999999968020602
s(g910
g13
tp1193
F-1.0
s(g914
g14
tp1194
F-2.850016661016369
s(g918
g8
tp1195
F-0.9999999999999999
s(g922
g7
tp1196
F-2.355146165497864
s(g926
g4
tp1197
F-2.8310752462036204
s(g930
g16
tp1198
F-0.9999999999999999
s(g934
g8
tp1199
F-0.9957068646712599
s(g938
g49
tp1200
F-0.8251963302715368
s(g941
g49
tp1201
F-0.9999999992478762
s(g945
g18
tp1202
F-2.8500165696098145
s(g949
g8
tp1203
F-1.0
s(g953
g8
tp1204
F-0.9991311980113997
s(g957
g4
tp1205
F-0.999993123582758
s(g961
g39
tp1206
F-0.9999999996266546
s(g965
g9
tp1207
F-2.8841518452907846
s(g969
g15
tp1208
F-0.9927706375138896
s(dp1209
(g11
g4
tp1210
F0.08873233251530144
s(g23
g14
tp1211
F0.5099857462495653
s(g27
g18
tp1212
F0.29938039131233124
s(g32
g18
tp1213
F0.1962915140230253
s(g37
g29
tp1214
F0.08270433237647315
s(g43
g8
tp1215
F0.05477359404450838
s(g47
g15
tp1216
F0.5151371174238033
s(g53
g9
tp1217
F0.0643291962372672
s(g56
g3
tp1218
F0.06056466128430856
s(g60
g9
tp1219
F0.010860193639877886
s(g64
g1
tp1220
F0.066968002747864
s(g68
g14
tp1221
F0.010327936091511133
s(g72
g13
tp1222
F0.16713393501488363
s(g76
g4
tp1223
F0.010860193639877886
s(g80
g7
tp1224
F0.04663740229999265
s(g84
g8
tp1225
F0.07555183406752791
s(g88
g15
tp1226
F0.44752321376381066
s(g92
g8
tp1227
F0.18295651830906087
s(g96
g16
tp1228
F0.5151371174238033
s(g100
g2
tp1229
F0.011419881460400004
s(g103
g51
tp1230
F0.0643291962372672
s(g107
g8
tp1231
F0.8097278682212583
s(g110
g2
tp1232
F0.06368590427489453
s(g114
g4
tp1233
F0.028788808638944622
s(g118
g16
tp1234
F0.4520436502664754
s(g122
g18
tp1235
F0.4342313267918117
s(g126
g4
tp1236
F0.8429431933839266
s(g130
g6
tp1237
F0.010860193639877886
s(g134
g13
tp1238
F0.06179436923202588
s(g138
g16
tp1239
F0.525596487525562
s(g142
g15
tp1240
F0.10421225282987552
s(g146
g18
tp1241
F0.04303441553421869
s(g150
g7
tp1242
F0.07555183406752791
s(g154
g29
tp1243
F0.0012265204581664133
s(g158
g18
tp1244
F0.11875755691154315
s(g162
g1
tp1245
F0.19046145976502743
s(g166
g13
tp1246
F0.30854447063465107
s(g170
g1
tp1247
F0.4801414565714212
s(g174
g2
tp1248
F0.015594467994581935
s(g178
g8
tp1249
F0.45660974774391455
s(g182
g8
tp1250
F0.8179069375972307
s(g186
g7
tp1251
F0.21487444770607952
s(g190
g13
tp1252
F0.06629832272038537
s(g194
g9
tp1253
F0.617290140942288
s(g198
g9
tp1254
F0.1211688163570484
s(g202
g18
tp1255
F0.03381119958765021
s(g206
g1
tp1256
F0.7249803359578534
s(g210
g7
tp1257
F0.0643291962372672
s(g214
g15
tp1258
F0.5526834771623851
s(g218
g16
tp1259
F0.08270433237647315
s(g222
g2
tp1260
F0.8687458127689781
s(g226
g13
tp1261
F0.41712087993322045
s(g239
g233
tp1262
F0.0001547123146532005
s(g243
g4
tp1263
F0.1211688163570484
s(g247
g8
tp1264
F0.014830183896331426
s(g251
g14
tp1265
F0.44304798162617254
s(g255
g7
tp1266
F0.45660974774391455
s(g259
g9
tp1267
F0.682554595010387
s(g263
g3
tp1268
F0.7177305325982748
s(g267
g9
tp1269
F0.058765830279503314
s(g271
g8
tp1270
F0.07404835256958411
s(g275
g16
tp1271
F0.44752321376381066
s(g279
g19
tp1272
F0.8600583546412883
s(g283
g2
tp1273
F0.617290140942288
s(g287
g13
tp1274
F0.23999247958413436
s(g290
g4
tp1275
F0.01200841319170568
s(g294
g13
tp1276
F0.37346428045426927
s(g298
g13
tp1277
F0.06117642553970562
s(g302
g39
tp1278
F0.21487444770607952
s(g306
g20
tp1279
F0.017070797554767782
s(g310
g9
tp1280
F0.8514577710948754
s(g314
g3
tp1281
F0.3516092065580223
s(g318
g8
tp1282
F0.028788808638944622
s(g322
g7
tp1283
F0.5753547499769285
s(g326
g7
tp1284
F0.010860193639877886
s(g330
g13
tp1285
F0.6361854860638709
s(g334
g4
tp1286
F0.8345137614500874
s(g338
g16
tp1287
F0.38104711810454983
s(g342
g2
tp1288
F0.0485504851305729
s(g346
g3
tp1289
F0.8097278682212583
s(g349
g41
tp1290
F0.05477359404450838
s(g353
g8
tp1291
F0.1211688163570484
s(g357
g7
tp1292
F0.08873233251530144
s(g361
g4
tp1293
F0.8514577710948754
s(g365
g4
tp1294
F0.6361854860638709
s(g369
g16
tp1295
F0.10213842899856099
s(g373
g6
tp1296
F0.04663740229999265
s(g376
g39
tp1297
F0.04663740229999265
s(g380
g16
tp1298
F0.40882017442254937
s(g384
g9
tp1299
F0.028788808638944622
s(g388
g29
tp1300
F0.4612219674180955
s(g392
g14
tp1301
F0.022392550271025803
s(g396
g51
tp1302
F0.2523606630893461
s(g400
g4
tp1303
F0.22368867397864742
s(g404
g15
tp1304
F0.05935942452475082
s(g408
g16
tp1305
F0.03381119958765021
s(g412
g7
tp1306
F0.2523606630893461
s(g416
g6
tp1307
F0.008114433626754238
s(g420
g8
tp1308
F0.8429431933839266
s(g426
g236
tp1309
F1.0515407566164485e-19
s(g430
g2
tp1310
F0.8953382542587163
s(g434
g1
tp1311
F0.052089142933589364
s(g438
g3
tp1312
F0.24733868589386815
s(g442
g9
tp1313
F0.07404835256958411
s(g446
g15
tp1314
F0.5582661385478638
s(g450
g14
tp1315
F0.6235253948912
s(g454
g15
tp1316
F0.041338687854852486
s(g458
g16
tp1317
F0.41712087993322045
s(g461
g6
tp1318
F0.03970977861200675
s(g465
g2
tp1319
F0.12741333767875881
s(g469
g13
tp1320
F0.10213842899856099
s(g473
g16
tp1321
F0.05935942452475082
s(g477
g14
tp1322
F0.5639051904523876
s(g481
g39
tp1323
F0.010644075786444315
s(g485
g9
tp1324
F0.07555183406752791
s(g489
g39
tp1325
F0.014830183896331426
s(g493
g15
tp1326
F0.018686891355133916
s(g497
g9
tp1327
F0.014830183896331426
s(g501
g4
tp1328
F0.07555183406752791
s(g504
g7
tp1329
F0.028788808638944622
s(g508
g8
tp1330
F0.617290140942288
s(g512
g8
tp1331
F0.8345137614500874
s(g516
g2
tp1332
F0.8514577710948754
s(g520
g13
tp1333
F0.45660974774391455
s(g524
g14
tp1334
F0.36237201786049694
s(g528
g3
tp1335
F0.2963865873992079
s(g532
g3
tp1336
F0.8429431933839266
s(g536
g4
tp1337
F0.06368590427489453
s(g540
g7
tp1338
F0.8097278682212583
s(g544
g6
tp1339
F0.2523606630893461
s(g548
g13
tp1340
F0.38878391807422696
s(g552
g9
tp1341
F0.8429431933839266
s(g556
g7
tp1342
F0.10421225282987552
s(g560
g35
tp1343
F0.016398140018627688
s(g564
g237
tp1344
F3.8469525543287903e-29
s(g567
g8
tp1345
F0.003523541279909585
s(g571
g7
tp1346
F0.05477359404450838
s(g575
g18
tp1347
F0.8600583546412883
s(g579
g14
tp1348
F0.14519690621578268
s(g583
g39
tp1349
F0.8514577710948754
s(g587
g2
tp1350
F0.21487444770607952
s(g591
g16
tp1351
F0.6235253948912
s(g595
g2
tp1352
F0.8345137614500874
s(g599
g4
tp1353
F0.8097278682212583
s(g603
g8
tp1354
F0.8097278682212583
s(g607
g2
tp1355
F0.05702042635437178
s(g611
g1
tp1356
F0.054225858104063294
s(g615
g7
tp1357
F0.3516092065580223
s(g619
g4
tp1358
F0.8429431933839266
s(g623
g6
tp1359
F0.3848960788934847
s(g627
g6
tp1360
F0.8863848717161291
s(g631
g8
tp1361
F0.2963865873992079
s(g635
g4
tp1362
F0.0643291962372672
s(g639
g9
tp1363
F0.05477359404450838
s(g643
g9
tp1364
F0.7177305325982748
s(g647
g9
tp1365
F0.8097278682212583
s(g651
g18
tp1366
F0.44752321376381066
s(g655
g13
tp1367
F0.8429431933839266
s(g659
g7
tp1368
F0.18295651830906087
s(g663
g6
tp1369
F0.8514577710948754
s(g667
g2
tp1370
F0.7471720943315961
s(g671
g18
tp1371
F0.028215911347029624
s(g675
g29
tp1372
F0.028215911347029624
s(g679
g29
tp1373
F0.03381119958765021
s(g683
g2
tp1374
F0.45660974774391455
s(g687
g231
tp1375
F0.0001547123146532005
s(g691
g4
tp1376
F0.6361854860638709
s(g695
g14
tp1377
F0.029373338066467324
s(g699
g7
tp1378
F0.8345137614500874
s(g702
g1
tp1379
F0.07404835256958411
s(g706
g18
tp1380
F0.14964140560361566
s(g710
g6
tp1381
F0.44752321376381066
s(g714
g3
tp1382
F0.014830183896331426
s(g718
g8
tp1383
F0.682554595010387
s(g722
g14
tp1384
F0.39667780642202527
s(g726
g14
tp1385
F0.5471566423907612
s(g730
g8
tp1386
F0.10421225282987552
s(g734
g8
tp1387
F0.0012897300642581763
s(g738
g16
tp1388
F0.12741333767875881
s(g742
g4
tp1389
F0.8514577710948754
s(g746
g235
tp1390
F6.480746962928195e-09
s(g750
g20
tp1391
F0.5582661385478638
s(g754
g14
tp1392
F0.08609689350726446
s(g758
g8
tp1393
F0.08873233251530144
s(g762
g13
tp1394
F0.023546566310951894
s(g766
g9
tp1395
F0.06368590427489453
s(g770
g16
tp1396
F0.041338687854852486
s(g774
g19
tp1397
F0.10213842899856099
s(g778
g7
tp1398
F0.0012897300642581763
s(g782
g18
tp1399
F0.334376856889913
s(g786
g13
tp1400
F0.4047319726783239
s(g790
g2
tp1401
F0.066968002747864
s(g794
g20
tp1402
F0.08270433237647315
s(g798
g7
tp1403
F0.617290140942288
s(g802
g9
tp1404
F0.04663740229999265
s(g806
g4
tp1405
F0.05477359404450838
s(g810
g7
tp1406
F0.7249803359578534
s(g814
g1
tp1407
F0.8097278682212583
s(g818
g18
tp1408
F0.4520436502664754
s(g822
g7
tp1409
F0.07404835256958411
s(g826
g8
tp1410
F0.21487444770607952
s(g830
g14
tp1411
F0.2352166292404101
s(g834
g6
tp1412
F0.2963865873992079
s(g838
g13
tp1413
F0.03519814702087948
s(g842
g4
tp1414
F0.18295651830906087
s(g846
g4
tp1415
F0.682554595010387
s(g850
g229
tp1416
F7.280554856459188e-05
s(g854
g2
tp1417
F0.029969735809067772
s(g858
g7
tp1418
F0.2963865873992079
s(g862
g18
tp1419
F0.5582661385478638
s(g866
g2
tp1420
F0.20230002712877712
s(g870
g6
tp1421
F0.002940443687122003
s(g874
g19
tp1422
F0.5526834771623851
s(g878
g7
tp1423
F0.1211688163570484
s(g882
g2
tp1424
F0.2627125872502282
s(g886
g14
tp1425
F0.41294967113388825
s(g890
g16
tp1426
F0.02261873764750081
s(g894
g8
tp1427
F0.2523606630893461
s(g898
g2
tp1428
F0.007120586097206604
s(g902
g16
tp1429
F0.017070797554767782
s(g906
g7
tp1430
F0.617290140942288
s(g910
g13
tp1431
F0.7323033696543974
s(g914
g14
tp1432
F0.8345137614500874
s(g918
g8
tp1433
F0.3516092065580223
s(g922
g7
tp1434
F0.6556592205741436
s(g926
g4
tp1435
F0.07404835256958411
s(g930
g16
tp1436
F0.3244455298634257
s(g934
g8
tp1437
F0.04663740229999265
s(g938
g49
tp1438
F9.863425445424437e-07
s(g941
g49
tp1439
F0.10111704470857538
s(g945
g18
tp1440
F0.12239274379499838
s(g949
g8
tp1441
F0.8514577710948754
s(g953
g8
tp1442
F0.0643291962372672
s(g957
g4
tp1443
F0.45660974774391455
s(g961
g39
tp1444
F0.18295651830906087
s(g965
g9
tp1445
F0.7249803359578534
s(g969
g15
tp1446
F0.024024656984952448
stp1447
.