((dp0
(((S'Argentina'
p1
S'Brazil'
p2
S'Eastern United States'
p3
S'Peru'
p4
tp5
(S'Central America'
p6
S'Quebec'
p7
S'Venezuela'
p8
S'Western United States'
p9
tp10
tp11
g4
tp12
I237
s(((g1
g2
g6
g3
S'Ontario'
p13
g4
g7
g8
tp14
(S'Northwest Territory'
p15
g9
tp16
tp17
g8
tp18
I286
s(((S'Alberta'
p19
g1
g2
g6
g3
S'Greenland'
p20
g4
g7
g8
g9
tp21
(g13
tp22
tp23
g9
tp24
I302
s(((g19
g1
g2
g6
g3
g20
g15
g13
g4
g7
g8
g9
tp25
(ttp26
g3
tp27
I312
s(((g19
g1
g2
g6
g3
g20
g13
g4
g7
g9
tp28
(g8
tp29
tp30
g9
tp31
I442
s(((g1
g6
tp32
(g2
g4
g7
g8
g9
tp33
tp34
g1
tp35
I162
s(((g19
g1
g2
g6
g3
g13
g4
g7
tp36
(g8
g9
tp37
tp38
g4
tp39
I442
s(((g1
g2
g6
g3
g4
g7
tp40
(g13
g8
g9
tp41
tp42
g7
tp43
I302
s(((g19
g1
g2
g6
g13
g4
g7
g8
tp44
(g3
g9
tp45
tp46
g8
tp47
I312
s(((g1
g2
g6
g8
tp48
(g13
g4
g7
g9
tp49
tp50
g8
tp51
I150
s(((g1
g2
tp52
(g6
g4
g7
g8
g9
tp53
tp54
g2
tp55
I493
s(((g19
g1
g2
g6
g3
g20
g15
g13
g4
g7
g8
g9
tp56
(ttp57
g20
tp58
I297
s(((g2
g6
g3
g13
g4
g8
tp59
(g1
g7
g9
tp60
tp61
g8
tp62
I34
s(((g19
g1
g2
g6
g3
g20
g15
g13
g4
g7
g8
g9
tp63
(ttp64
g2
tp65
I267
s(((g1
g2
g6
g4
tp66
(g13
g7
g8
g9
tp67
tp68
g4
tp69
I339
s(((g2
g4
tp70
(g1
g3
g7
g8
g9
tp71
tp72
g4
tp73
I30
s(((g1
g6
g3
g4
tp74
(g2
g7
g8
g9
tp75
tp76
g3
tp77
I50
s(((g1
g2
g6
g13
g4
g7
tp78
(g3
g8
g9
tp79
tp80
g7
tp81
I312
s(((g19
g1
g2
g6
g3
g13
g4
g7
tp82
(g8
g9
tp83
tp84
g13
tp85
I3
s(((g1
g2
tp86
(g13
g4
g7
g8
g9
tp87
tp88
g1
tp89
I146
s(((g1
g2
tp90
(g6
g3
g7
g8
g9
tp91
tp92
g1
tp93
I62
s(((g1
g2
tp94
(g3
g13
g4
g8
g9
tp95
tp96
g2
tp97
I243
s(((g1
g2
g6
g3
g13
g8
tp98
(g4
g7
g9
tp99
tp100
g8
tp101
I166
s(((g19
g1
g2
g6
g3
g20
g13
g7
g8
g9
tp102
(g4
tp103
tp104
g8
tp105
I25
s(((g19
g1
g2
g6
g3
g4
g7
g8
tp106
(g13
g9
tp107
tp108
g7
tp109
I134
s(((g19
g1
g2
g6
g3
g13
g4
g9
tp110
(g7
g8
tp111
tp112
g9
tp113
I47
s(((g1
g2
g6
g3
g20
g13
g4
g7
g8
g9
tp114
(g19
tp115
tp116
g9
tp117
I210
s(((g1
g2
g6
g4
tp118
(g3
g7
g8
g9
tp119
tp120
g6
tp121
I90
s(((g1
g2
tp122
(g6
g13
g4
g8
g9
tp123
tp124
g2
tp125
I25
s(((g1
g6
g3
g13
g4
g8
tp126
(g2
g7
g9
tp127
tp128
g8
tp129
I50
s(((g1
g2
g6
g3
g13
g4
tp130
(g7
g8
g9
tp131
tp132
g4
tp133
I1020
s(((g1
g2
g6
g4
tp134
(g19
g7
g8
g9
tp135
tp136
g4
tp137
I210
s(((g19
g1
g2
g6
g3
g13
g7
g8
tp138
(g4
g9
tp139
tp140
g8
tp141
I246
s(((g19
g1
g2
g6
g3
g20
g13
g4
g7
g8
tp142
(g9
tp143
tp144
g7
tp145
I166
s(((g19
g1
g2
g6
g3
g20
g13
g4
g7
g8
tp146
(g9
tp147
tp148
g20
tp149
I90
s(((g19
g1
g2
g6
g3
g20
g13
g4
g7
g8
tp150
(g9
tp151
tp152
g4
tp153
I150
s(((g19
g2
g6
g3
g13
g4
g7
g8
tp154
(g1
g9
tp155
tp156
g8
tp157
I201
s(((g1
g2
g6
g4
tp158
(g3
g7
g8
g9
tp159
tp160
g2
tp161
I39
s(((g19
g1
g2
g6
g3
g20
g15
g13
g4
g7
g8
g9
tp162
(ttp163
g4
tp164
I271
s(((g1
g4
tp165
(g2
g3
g7
g8
g9
tp166
tp167
g1
tp168
I33
s(((g19
g1
g2
g6
g3
g20
g13
g4
g7
g8
tp169
(g9
tp170
tp171
g13
tp172
I134
s(((g19
g1
g2
g6
g3
g4
g7
g9
tp173
(g13
g8
tp174
tp175
g9
tp176
I26
s(((g1
g2
g3
g4
tp177
(g6
g7
g8
g9
tp178
tp179
g3
tp180
I66
s(((g19
g1
g2
g6
g3
g13
g4
g8
tp181
(g7
g9
tp182
tp183
g8
tp184
I339
s(((g1
g2
g6
g7
tp185
(g3
g4
g8
g9
tp186
tp187
g7
tp188
I25
s(((g1
g2
g6
g3
g13
g7
tp189
(g4
g8
g9
tp190
tp191
g7
tp192
I442
s(((g1
g2
tp193
(g6
g13
g7
g8
g9
tp194
tp195
g2
tp196
I298
s(((g19
g1
g2
g6
g3
g20
g15
g13
g4
g7
g8
g9
tp197
(ttp198
g15
tp199
I286
s(((g1
g2
g6
g3
g13
g4
g7
g8
tp200
(g19
g9
tp201
tp202
g8
tp203
I210
s(((g1
g2
g3
g13
g4
g7
tp204
(g6
g8
g9
tp205
tp206
g7
tp207
I237
s(((g1
g4
tp208
(g2
g3
g7
g8
g9
tp209
tp210
g4
tp211
I50
s(((g1
g2
g6
g4
tp212
(g13
g7
g8
g9
tp213
tp214
g6
tp215
I302
s(((g19
g1
g2
g6
g3
g20
g15
g13
g4
g7
g8
g9
tp216
(ttp217
g13
tp218
I328
s(((g19
g1
g2
g6
g3
g20
g13
g4
g8
g9
tp219
(g7
tp220
tp221
g9
tp222
I339
s(((g1
g2
g6
g3
g13
g7
tp223
(g4
g8
g9
tp224
tp225
g3
tp226
I25
s(((g1
g4
tp227
(g2
g13
g7
g8
g9
tp228
tp229
g4
tp230
I130
s(((g19
g1
g2
g6
g3
g20
g13
g4
g8
g9
tp231
(g7
tp232
tp233
g8
tp234
I47
s(((g1
g2
g6
g3
g13
g4
g7
g8
tp235
(g20
g9
tp236
tp237
g7
tp238
I117
s(((g2
g6
tp239
(g1
g4
g7
g8
g9
tp240
tp241
g6
tp242
I197
s(((g19
g1
g2
g6
g3
g20
g13
g4
g7
g8
tp243
(g9
tp244
tp245
g8
tp246
I1023
s(((g1
g2
tp247
(g3
g4
g7
g8
g9
tp248
tp249
g1
tp250
I307
s(((g1
g2
g6
g3
g13
g4
tp251
(g7
g8
g9
tp252
tp253
g3
tp254
I47
s(((g19
g2
g6
g3
g20
g13
g4
g7
g8
g9
tp255
(g1
tp256
tp257
g9
tp258
I201
s(((g19
g1
g2
g6
g3
g20
g15
g13
g4
g7
g8
g9
tp259
(ttp260
g6
tp261
I237
s(((g1
g2
tp262
(g19
g4
g7
g8
g9
tp263
tp264
g2
tp265
I205
s(((g1
g2
g6
g3
g13
g4
tp266
(g7
g8
g9
tp267
tp268
g13
tp269
I339
s(((g1
g2
g6
g3
tp270
(g13
g4
g8
g9
tp271
tp272
g3
tp273
I246
s(((g1
g2
g6
g3
g13
g7
tp274
(g4
g8
g9
tp275
tp276
g13
tp277
I246
s(((g1
g2
g6
g3
g4
g7
tp278
(g13
g8
g9
tp279
tp280
g3
tp281
I3
s(((g19
g1
g2
g6
g3
g20
g13
g7
g8
g9
tp282
(g4
tp283
tp284
g9
tp285
I246
s(((g19
g1
g2
g6
g3
g20
g15
g13
g4
g7
g8
g9
tp286
(ttp287
g7
tp288
I386
s(((g1
g2
tp289
(g6
g3
g7
g8
g9
tp290
tp291
g2
tp292
I86
s(((g19
g1
g2
g6
g3
g20
g13
g4
g7
g8
tp293
(g9
tp294
tp295
g3
tp296
I82
s(((g1
g6
g3
g4
tp297
(g2
g7
g8
g9
tp298
tp299
g4
tp300
I267
s(((g19
g2
g6
g3
g13
g4
g7
g8
tp301
(g1
g9
tp302
tp303
g7
tp304
I34
s(((g1
g2
g6
g4
tp305
(g20
g7
g8
g9
tp306
tp307
g6
tp308
I117
s(((g19
g1
g2
g6
g3
g20
g15
g13
g4
g7
g8
g9
tp309
(ttp310
g9
tp311
I1813
s(((g19
g1
g2
g6
g3
g20
g4
g7
g8
g9
tp312
(g13
tp313
tp314
g8
tp315
I26
s(((g1
g6
g3
g13
g4
g7
tp316
(g2
g8
g9
tp317
tp318
g7
tp319
I267
s(((g19
g1
g2
g6
g3
g20
g15
g13
g4
g7
g8
g9
tp320
(ttp321
g8
tp322
I442
s(((g1
g2
g6
g3
g4
g7
tp323
(g15
g8
g9
tp324
tp325
g7
tp326
I286
s(((g1
g2
g6
g4
tp327
(g13
g7
g8
g9
tp328
tp329
g2
tp330
I134
s(((g19
g1
g2
g6
g3
g20
g13
g4
g7
g8
tp331
(g9
tp332
tp333
g2
tp334
I50
s(((g19
g1
g2
g6
g3
g20
g15
g13
g4
g7
g8
g9
tp335
(ttp336
g19
tp337
I210
s(((g1
g2
tp338
(g15
g4
g7
g8
g9
tp339
tp340
g2
tp341
I282
s(((g1
g2
tp342
(g6
g4
g7
g8
g9
tp343
tp344
g1
tp345
I177
s(((g19
g1
g2
g3
g13
g4
g7
g8
tp346
(g6
g9
tp347
tp348
g7
tp349
I66
s(((g2
g6
g3
g13
g4
g7
tp350
(g1
g8
g9
tp351
tp352
g7
tp353
I201
s(((g1
g6
tp354
(g2
g4
g7
g8
g9
tp355
tp356
g6
tp357
I262
s(((g1
g2
g3
g13
g4
g8
tp358
(g6
g7
g9
tp359
tp360
g8
tp361
I66
s(((g1
g2
g6
g4
tp362
(g20
g7
g8
g9
tp363
tp364
g4
tp365
I270
s(((g19
g1
g2
g6
g3
g13
g4
g7
g8
g9
tp366
(g15
tp367
tp368
g9
tp369
I286
s(((g19
g1
g2
g6
g3
g13
g7
g9
tp370
(g4
g8
tp371
tp372
g9
tp373
I25
s(((g1
g2
g6
g3
tp374
(g4
g7
g8
g9
tp375
tp376
g3
tp377
I1020
s(((g19
g1
g2
g6
g3
g13
g7
g8
tp378
(g4
g9
tp379
tp380
g7
tp381
I150
s(((g1
g2
g6
g3
tp382
(g13
g4
g8
g9
tp383
tp384
g6
tp385
I26
s(((g1
g2
g6
g3
tp386
(g4
g7
g8
g9
tp387
tp388
g2
tp389
I166
s(((g2
g6
g3
g4
tp390
(g1
g7
g8
g9
tp391
tp392
g3
tp393
I34
s(((g19
g1
g2
g6
g3
g20
g15
g13
g4
g7
g8
g9
tp394
(ttp395
g1
tp396
I201
s(((g19
g1
g2
g6
g3
g20
g13
g4
g7
g8
tp397
(g9
tp398
tp399
g6
tp400
I66
s(((g19
g1
g2
g6
g20
g13
g4
g7
g8
g9
tp401
(g3
tp402
tp403
g9
tp404
I312
s(((g1
g2
g6
g4
tp405
(g3
g7
g8
g9
tp406
tp407
g4
tp408
I312
s(((g19
g1
g6
g3
g13
g4
g7
g8
tp409
(g2
g9
tp410
tp411
g8
tp412
I267
s(((g1
g2
g6
g3
g4
g8
tp413
(g19
g7
g9
tp414
tp415
g8
tp416
I18
s(((g1
g2
g6
g3
g4
g7
tp417
(g13
g8
g9
tp418
tp419
g4
tp420
I26
s(((g19
g1
g2
g6
g3
g13
g4
g7
tp421
(g8
g9
tp422
tp423
g7
tp424
I1020
s(((g19
g1
g2
g3
g13
g4
g7
g8
tp425
(g6
g9
tp426
tp427
g8
tp428
I237
s(((g1
g2
tp429
(g3
g13
g4
g8
g9
tp430
tp431
g1
tp432
I1
s(((g19
g1
g6
g3
g20
g13
g4
g7
g8
g9
tp433
(g2
tp434
tp435
g9
tp436
I267
s(((g1
g2
g6
g3
g13
g4
g7
g8
tp437
(g19
g9
tp438
tp439
g7
tp440
I18
s(((g1
g2
tp441
(g20
g4
g7
g8
g9
tp442
tp443
g2
tp444
I266
s(((g19
g1
g2
g6
g3
g13
g4
g7
g8
g9
tp445
(g20
tp446
tp447
g9
tp448
I297
s(((g1
g2
g6
g4
tp449
(g15
g7
g8
g9
tp450
tp451
g4
tp452
I286
s(((g19
g1
g2
g6
g3
g20
g13
g4
g7
g8
tp453
(g9
tp454
tp455
g1
tp456
I34
s(((g1
g2
g6
g3
tp457
(g4
g7
g8
g9
tp458
tp459
g6
tp460
I442
s(((g1
g2
g6
g3
g4
g8
tp461
(g13
g7
g9
tp462
tp463
g8
tp464
I134
s(((g1
g2
g6
g3
g4
g7
tp465
(g20
g8
g9
tp466
tp467
g7
tp468
I270
s(((g19
g1
g2
g3
g20
g13
g4
g7
g8
g9
tp469
(g6
tp470
tp471
g9
tp472
I237
s(((g1
g2
tp473
(g3
g4
g7
g8
g9
tp474
tp475
g2
tp476
I1133
s(((g1
g2
tp477
(g13
g4
g7
g8
g9
tp478
tp479
g2
tp480
I335
s(((g19
g1
g2
g6
g13
g4
g7
g8
tp481
(g3
g9
tp482
tp483
g7
tp484
I82
s(((g1
g2
g6
g3
g4
g7
tp485
(g19
g8
g9
tp486
tp487
g7
tp488
I210
s(((g1
g2
g6
g4
tp489
(g19
g7
g8
g9
tp490
tp491
g6
tp492
I18
s(((g1
g2
tp493
(g6
g20
g7
g8
g9
tp494
tp495
g2
tp496
I113
s(((g1
g2
g6
g4
tp497
(g3
g13
g8
g9
tp498
tp499
g4
tp500
I3
s(((g1
g2
g6
g3
g4
g8
tp501
(g20
g7
g9
tp502
tp503
g8
tp504
I117
s(((g1
g2
tp505
(g19
g6
g7
g8
g9
tp506
tp507
g2
tp508
I14
s(((g1
g2
g6
g13
g4
g8
tp509
(g3
g7
g9
tp510
tp511
g8
tp512
I82
s(((g19
g1
g6
g3
g13
g4
g7
g8
tp513
(g2
g9
tp514
tp515
g7
tp516
I50
s(((g2
g6
g3
g4
tp517
(g1
g7
g8
g9
tp518
tp519
g4
tp520
I201
s(((g19
g1
g2
g6
g3
g4
g7
g8
tp521
(g13
g9
tp522
tp523
g8
tp524
I302
s(((g19
g1
g2
g6
g3
g20
g13
g4
g7
g8
tp525
(g9
tp526
tp527
g19
tp528
I18
s(((g1
g2
g6
g3
g13
g4
g7
g8
tp529
(g20
g9
tp530
tp531
g8
tp532
I270
s(((g19
g1
g2
g6
g3
g13
g4
g8
tp533
(g7
g9
tp534
tp535
g4
tp536
I166
s(((g1
g2
g6
g3
g13
g8
tp537
(g4
g7
g9
tp538
tp539
g13
tp540
I150
s(dp541
(g11
g4
tp542
F-2.741485737230539
s(g17
g8
tp543
F-0.9999963531143569
s(g23
g9
tp544
F-0.9998942404688138
s(g26
g3
tp545
F-0.9999991968542966
s(g30
g9
tp546
F-0.9890603742536481
s(g34
g1
tp547
F-1.8198058251985016
s(g38
g4
tp548
F-0.9890594566592213
s(g42
g7
tp549
F-0.99990265454328
s(g46
g8
tp550
F-0.9999992104762667
s(g50
g8
tp551
F-2.8172787153805516
s(g54
g2
tp552
F-1.7494007392707
s(g57
g20
tp553
F-0.9999997398275361
s(g61
g8
tp554
F-1.0
s(g64
g2
tp555
F-0.9999999998228202
s(g68
g4
tp556
F-2.7997323461932013
s(g72
g4
tp557
F-1.8198071823703637
s(g76
g3
tp558
F-2.8198068754960226
s(g80
g7
tp559
F-0.9999992657601026
s(g84
g13
tp560
F-1.0
s(g88
g1
tp561
F-1.8198061937585888
s(g92
g1
tp562
F-1.8198070333207776
s(g96
g2
tp563
F-1.819768249212874
s(g100
g8
tp564
F-0.9999999999999999
s(g104
g8
tp565
F-1.0
s(g108
g7
tp566
F-1.0
s(g112
g9
tp567
F-1.0
s(g116
g9
tp568
F-0.9999999999999998
s(g120
g6
tp569
F-2.8198059487790053
s(g124
g2
tp570
F-1.819806682445655
s(g128
g8
tp571
F-1.0
s(g132
g4
tp572
F-0.615253717060538
s(g136
g4
tp573
F-0.9999999999999998
s(g140
g8
tp574
F-0.9999950481936758
s(g144
g7
tp575
F-0.9999999999999999
s(g148
g20
tp576
F-1.0
s(g152
g4
tp577
F-0.9999999999999999
s(g156
g8
tp578
F-0.9999999999999661
s(g160
g2
tp579
F-2.819806103076338
s(g163
g4
tp580
F-0.99999787694025
s(g167
g1
tp581
F-1.8198071155256255
s(g171
g13
tp582
F-1.0
s(g175
g9
tp583
F-1.0
s(g179
g3
tp584
F-2.8198067510726474
s(g183
g8
tp585
F-0.9991090733458796
s(g187
g7
tp586
F-1.6347884932962258
s(g191
g7
tp587
F-0.9695075494770741
s(g195
g2
tp588
F-1.8196846325815597
s(g198
g15
tp589
F-0.9999963531143573
s(g202
g8
tp590
F-0.9999999999999998
s(g206
g7
tp591
F-0.999999999369777
s(g210
g4
tp592
F-1.8198070160326734
s(g214
g6
tp593
F-0.9999765851870414
s(g217
g13
tp594
F-0.9999763608770539
s(g221
g9
tp595
F-0.9973447094440921
s(g225
g3
tp596
F-1.0
s(g229
g4
tp597
F-1.819806477564526
s(g233
g8
tp598
F-1.0
s(g237
g7
tp599
F-1.0
s(g241
g6
tp600
F-1.8198048330556258
s(g245
g8
tp601
F-0.827299744325034
s(g249
g1
tp602
F-1.8197940838231739
s(g253
g3
tp603
F-1.0
s(g257
g9
tp604
F-0.9999999999999706
s(g260
g6
tp605
F-0.9999999991550301
s(g264
g2
tp606
F-1.819805369246036
s(g268
g13
tp607
F-0.9980955391743918
s(g272
g3
tp608
F-0.9999950129207441
s(g276
g13
tp609
F-0.9999950481935339
s(g280
g3
tp610
F-1.0
s(g284
g9
tp611
F-0.9999780877627871
s(g287
g7
tp612
F-0.9997053086979848
s(g291
g2
tp613
F-1.8198068699841086
s(g295
g3
tp614
F-1.0
s(g299
g4
tp615
F-2.8197963441406504
s(g303
g7
tp616
F-1.0
s(g307
g6
tp617
F-1.0
s(g310
g9
tp618
F-0.8198072660968319
s(g314
g8
tp619
F-1.0
s(g318
g7
tp620
F-0.9999999992667037
s(g321
g8
tp621
F-0.9890604381337711
s(g325
g7
tp622
F-0.9999963531143566
s(g329
g2
tp623
F-1.0
s(g333
g2
tp624
F-1.0
s(g336
g19
tp625
F-0.9999999999999998
s(g340
g2
tp626
F-1.8197791740171414
s(g344
g1
tp627
F-1.8198045395759632
s(g348
g7
tp628
F-1.0
s(g352
g7
tp629
F-0.9999999999999556
s(g356
g6
tp630
F-1.8198029323245382
s(g360
g8
tp631
F-1.0
s(g364
g4
tp632
F-0.9999994495269289
s(g368
g9
tp633
F-0.9999963531143573
s(g372
g9
tp634
F-1.0
s(g376
g3
tp635
F-0.7636696055009177
s(g380
g7
tp636
F-0.9999999999999999
s(g384
g6
tp637
F-1.0
s(g388
g2
tp638
F-2.8198015120380613
s(g392
g3
tp639
F-1.0
s(g395
g1
tp640
F-0.999999999999972
s(g399
g6
tp641
F-1.0
s(g403
g9
tp642
F-0.9999991974464199
s(g407
g4
tp643
F-1.6339348557854718
s(g411
g8
tp644
F-0.9999999997867394
s(g415
g8
tp645
F-1.0
s(g419
g4
tp646
F-1.0
s(g423
g7
tp647
F-0.7464424747346521
s(g427
g8
tp648
F-0.9999999992311137
s(g431
g1
tp649
F-1.8198072535487706
s(g435
g9
tp650
F-0.9999999998315511
s(g439
g7
tp651
F-1.0
s(g443
g2
tp652
F-1.819798201631368
s(g447
g9
tp653
F-0.9999996503159907
s(g451
g4
tp654
F-0.999995942272202
s(g455
g1
tp655
F-1.0
s(g459
g6
tp656
F-2.600782178853314
s(g463
g8
tp657
F-1.0
s(g467
g7
tp658
F-0.9999980252484099
s(g471
g9
tp659
F-0.9999999991672
s(g475
g2
tp660
F-0.6348502328572663
s(g479
g2
tp661
F-1.817490042185584
s(g483
g7
tp662
F-1.0
s(g487
g7
tp663
F-0.9999999999999998
s(g491
g6
tp664
F-1.0
s(g495
g2
tp665
F-1.8198066951746623
s(g499
g4
tp666
F-2.8015705667207453
s(g503
g8
tp667
F-1.0
s(g507
g2
tp668
F-1.8198072391792164
s(g511
g8
tp669
F-1.0
s(g515
g7
tp670
F-1.0
s(g519
g4
tp671
F-0.9999999999999244
s(g523
g8
tp672
F-0.9999361178958108
s(g527
g19
tp673
F-1.0
s(g531
g8
tp674
F-0.9999982770091401
s(g535
g4
tp675
F-0.9999999999999999
s(g539
g13
tp676
F-0.9999999999999999
s(dp677
(g11
g4
tp678
F0.09330521652106873
s(g17
g8
tp679
F0.05702042635437178
s(g23
g9
tp680
F0.0485504851305729
s(g26
g3
tp681
F0.043908188485071616
s(g30
g9
tp682
F0.011888329059788623
s(g34
g1
tp683
F0.19827425658891445
s(g38
g4
tp684
F0.011888329059788623
s(g42
g7
tp685
F0.0485504851305729
s(g46
g8
tp686
F0.043908188485071616
s(g50
g8
tp687
F0.22368867397864742
s(g54
g2
tp688
F0.007120586097206604
s(g57
g20
tp689
F0.051052568989210935
s(g61
g8
tp690
F0.7177305325982748
s(g64
g2
tp691
F0.06901790349970886
s(g68
g4
tp692
F0.03347308759177371
s(g72
g4
tp693
F0.7471720943315961
s(g76
g3
tp694
F0.6111172395328651
s(g80
g7
tp695
F0.043908188485071616
s(g84
g13
tp696
F0.9801
s(g88
g1
tp697
F0.232864462948006
s(g92
g1
tp698
F0.5416850759668536
s(g96
g2
tp699
F0.08784500919014843
s(g100
g8
tp700
F0.19046145976502743
s(g104
g8
tp701
F0.7856781408072188
s(g108
g7
tp702
F0.2627125872502282
s(g112
g9
tp703
F0.6298236312032323
s(g116
g9
tp704
F0.12239274379499838
s(g120
g6
tp705
F0.40882017442254937
s(g124
g2
tp706
F0.7856781408072188
s(g128
g8
tp707
F0.6111172395328651
s(g132
g4
tp708
F3.566673006252883e-05
s(g136
g4
tp709
F0.12239274379499838
s(g140
g8
tp710
F0.08523592457219181
s(g144
g7
tp711
F0.19046145976502743
s(g148
g20
tp712
F0.40882017442254937
s(g152
g4
tp713
F0.22368867397864742
s(g156
g8
tp714
F0.13397967485796175
s(g160
g2
tp715
F0.682554595010387
s(g163
g4
tp716
F0.06629832272038537
s(g167
g1
tp717
F0.7249803359578534
s(g171
g13
tp718
F0.2627125872502282
s(g175
g9
tp719
F0.7778213593991465
s(g179
g3
tp720
F0.5203405226503064
s(g183
g8
tp721
F0.03347308759177371
s(g187
g7
tp722
F0.7856781408072188
s(g191
g7
tp723
F0.011888329059788623
s(g195
g2
tp724
F0.05054204329931883
s(g198
g15
tp725
F0.05702042635437178
s(g202
g8
tp726
F0.12239274379499838
s(g206
g7
tp727
F0.09330521652106873
s(g210
g4
tp728
F0.6111172395328651
s(g214
g6
tp729
F0.0485504851305729
s(g217
g13
tp730
F0.03738596830031274
s(g221
g9
tp731
F0.03347308759177371
s(g225
g3
tp732
F0.7856781408072188
s(g229
g4
tp733
F0.27348915102221616
s(g233
g8
tp734
F0.6298236312032323
s(g237
g7
tp735
F0.3116610814491425
s(g241
g6
tp736
F0.13947556877522502
s(g245
g8
tp737
F3.460739251294166e-05
s(g249
g1
tp738
F0.04617102827699272
s(g253
g3
tp739
F0.6298236312032323
s(g257
g9
tp740
F0.13397967485796175
s(g260
g6
tp741
F0.09330521652106873
s(g264
g2
tp742
F0.12870034108965536
s(g268
g13
tp743
F0.03347308759177371
s(g272
g3
tp744
F0.08523592457219181
s(g276
g13
tp745
F0.08523592457219181
s(g280
g3
tp746
F0.9801
s(g284
g9
tp747
F0.08523592457219181
s(g287
g7
tp748
F0.020871320158888425
s(g291
g2
tp749
F0.42559012338865465
s(g295
g3
tp750
F0.44304798162617254
s(g299
g4
tp751
F0.06901790349970886
s(g303
g7
tp752
F0.7177305325982748
s(g307
g6
tp753
F0.3116610814491425
s(g310
g9
tp754
F1.2330270686241993e-08
s(g314
g8
tp755
F0.7778213593991465
s(g318
g7
tp756
F0.06901790349970886
s(g321
g8
tp757
F0.011888329059788623
s(g325
g7
tp758
F0.05702042635437178
s(g329
g2
tp759
F0.2627125872502282
s(g333
g2
tp760
F0.6111172395328651
s(g336
g19
tp761
F0.12239274379499838
s(g340
g2
tp762
F0.05935942452475082
s(g344
g1
tp763
F0.1705274308895864
s(g348
g7
tp764
F0.5203405226503064
s(g352
g7
tp765
F0.13397967485796175
s(g356
g6
tp766
F0.07257479035344938
s(g360
g8
tp767
F0.5203405226503064
s(g364
g4
tp768
F0.066968002747864
s(g368
g9
tp769
F0.05702042635437178
s(g372
g9
tp770
F0.7856781408072188
s(g376
g3
tp771
F3.566673006252883e-05
s(g380
g7
tp772
F0.22368867397864742
s(g384
g6
tp773
F0.7778213593991465
s(g388
g2
tp774
F0.19046145976502743
s(g392
g3
tp775
F0.7177305325982748
s(g395
g1
tp776
F0.13397967485796175
s(g399
g6
tp777
F0.5203405226503064
s(g403
g9
tp778
F0.043908188485071616
s(g407
g4
tp779
F0.043908188485071616
s(g411
g8
tp780
F0.06901790349970886
s(g415
g8
tp781
F0.8429431933839266
s(g419
g4
tp782
F0.7778213593991465
s(g423
g7
tp783
F3.566673006252883e-05
s(g427
g8
tp784
F0.09330521652106873
s(g431
g1
tp785
I1
s(g435
g9
tp786
F0.06901790349970886
s(g439
g7
tp787
F0.8429431933839266
s(g443
g2
tp788
F0.06971505404010997
s(g447
g9
tp789
F0.051052568989210935
s(g451
g4
tp790
F0.05702042635437178
s(g455
g1
tp791
F0.7177305325982748
s(g459
g6
tp792
F0.011888329059788623
s(g463
g8
tp793
F0.2627125872502282
s(g467
g7
tp794
F0.066968002747864
s(g471
g9
tp795
F0.09330521652106873
s(g475
g2
tp796
F1.1456192022296615e-05
s(g479
g2
tp797
F0.03484616555067068
s(g483
g7
tp798
F0.44304798162617254
s(g487
g7
tp799
F0.12239274379499838
s(g491
g6
tp800
F0.8429431933839266
s(g495
g2
tp801
F0.3244455298634257
s(g499
g4
tp802
F0.9801
s(g503
g8
tp803
F0.3116610814491425
s(g507
g2
tp804
F0.8775210229989678
s(g511
g8
tp805
F0.44304798162617254
s(g515
g7
tp806
F0.6111172395328651
s(g519
g4
tp807
F0.13397967485796175
s(g523
g8
tp808
F0.0485504851305729
s(g527
g19
tp809
F0.8429431933839266
s(g531
g8
tp810
F0.066968002747864
s(g535
g4
tp811
F0.19046145976502743
s(g539
g13
tp812
F0.22368867397864742
stp813
.