((dp0
(((S'Brazil'
p1
I00
tp2
(S'Eastern United States'
p3
I00
tp4
(S'Quebec'
p5
I00
tp6
(S'Argentina'
p7
I00
tp8
(S'Venezuela'
p9
I00
tp10
(S'Northwest Territory'
p11
I00
tp12
tp13
I4
tp14
I250
s(((g1
I00
tp15
(S'Ontario'
p16
I00
tp17
(S'Greenland'
p18
I00
tp19
(g5
I00
tp20
(S'Alberta'
p21
I00
tp22
(g9
I00
tp23
tp24
I4
tp25
I172
s(((g1
I00
tp26
(g18
I00
tp27
(g3
I00
tp28
(g5
I00
tp29
(g21
I00
tp30
(g9
I00
tp31
tp32
I5
tp33
I48
s(((g1
I00
tp34
(g16
I00
tp35
(S'Central America'
p36
I00
tp37
(g5
I00
tp38
(S'Western United States'
p39
I00
tp40
(g21
I00
tp41
tp42
I5
tp43
I102
s(((g1
I00
tp44
(g18
I00
tp45
(g39
I00
tp46
(S'Peru'
p47
I00
tp48
(g21
I00
tp49
(g9
I00
tp50
tp51
I5
tp52
I51
s(((g16
I00
tp53
(S'Alaska'
p54
I00
tp55
(g18
I00
tp56
(g21
I00
tp57
(g7
I00
tp58
(g9
I00
tp59
tp60
I4
tp61
I102
s(((g1
I00
tp62
(g3
I00
tp63
(g47
I00
tp64
(g9
I00
tp65
(g16
I01
tp66
(g21
I01
tp67
tp68
I5
tp69
I14
s(((g1
I00
tp70
(g18
I00
tp71
(g16
I00
tp72
(g39
I00
tp73
(g7
I00
tp74
(g9
I00
tp75
tp76
I5
tp77
I187
s(((g36
I00
tp78
(g5
I00
tp79
(g21
I00
tp80
(g9
I00
tp81
(g1
I01
tp82
(g7
I01
tp83
tp84
I5
tp85
I7
s(((g18
I00
tp86
(g39
I00
tp87
(g3
I00
tp88
(g47
I00
tp89
(g7
I00
tp90
(g9
I00
tp91
tp92
I5
tp93
I90
s(((g36
I00
tp94
(g5
I00
tp95
(g7
I00
tp96
(g11
I00
tp97
(g16
I01
tp98
(g21
I01
tp99
tp100
I5
tp101
I77
s(((g1
I00
tp102
(g18
I00
tp103
(g5
I00
tp104
(g21
I00
tp105
(g11
I00
tp106
(g36
I01
tp107
tp108
I5
tp109
I14
s(((g3
I00
tp110
(g5
I00
tp111
(g21
I00
tp112
(g7
I00
tp113
(g9
I00
tp114
(g11
I01
tp115
tp116
I5
tp117
I56
s(((g1
I00
tp118
(g18
I00
tp119
(g3
I00
tp120
(g5
I00
tp121
(g47
I00
tp122
(g21
I00
tp123
tp124
I5
tp125
I68
s(((g1
I00
tp126
(g3
I00
tp127
(g54
I00
tp128
(g5
I00
tp129
(g7
I00
tp130
(g11
I00
tp131
tp132
I4
tp133
I68
s(((g36
I00
tp134
(g16
I00
tp135
(g5
I00
tp136
(g39
I00
tp137
(g18
I01
tp138
(g21
I01
tp139
tp140
I4
tp141
I33
s(((g54
I00
tp142
(g5
I00
tp143
(g21
I00
tp144
(g7
I00
tp145
(g9
I00
tp146
(g11
I00
tp147
tp148
I4
tp149
I102
s(((g1
I00
tp150
(g16
I00
tp151
(g36
I00
tp152
(g18
I00
tp153
(g5
I00
tp154
(g7
I00
tp155
tp156
I5
tp157
I70
s(((g1
I00
tp158
(g16
I00
tp159
(g18
I00
tp160
(g21
I00
tp161
(g7
I00
tp162
(g9
I00
tp163
tp164
I5
tp165
I102
s(((g16
I00
tp166
(g36
I00
tp167
(g18
I00
tp168
(g1
I01
tp169
(g7
I01
tp170
(g9
I01
tp171
tp172
I5
tp173
I608
s(((g1
I00
tp174
(g39
I00
tp175
(g3
I00
tp176
(g47
I00
tp177
(g21
I00
tp178
(g11
I00
tp179
tp180
I4
tp181
I102
s(((g18
I00
tp182
(g5
I00
tp183
(g21
I00
tp184
(g7
I00
tp185
(g9
I00
tp186
(g11
I00
tp187
tp188
I3
tp189
I102
s(((g18
I00
tp190
(g36
I00
tp191
(g5
I00
tp192
(g1
I01
tp193
(g7
I01
tp194
(g9
I01
tp195
tp196
I5
tp197
I608
s(((g1
I00
tp198
(g16
I00
tp199
(g3
I00
tp200
(g54
I00
tp201
(g7
I00
tp202
(g11
I00
tp203
tp204
I5
tp205
I34
s(((g16
I00
tp206
(g18
I00
tp207
(g21
I00
tp208
(g9
I00
tp209
(g11
I00
tp210
(g1
I01
tp211
tp212
I5
tp213
I11
s(((g3
I00
tp214
(g5
I00
tp215
(g21
I00
tp216
(g7
I00
tp217
(g11
I00
tp218
(g1
I01
tp219
tp220
I5
tp221
I187
s(((g1
I00
tp222
(g16
I00
tp223
(g54
I00
tp224
(g7
I00
tp225
(g9
I00
tp226
(g11
I00
tp227
tp228
I5
tp229
I340
s(((g1
I00
tp230
(g16
I00
tp231
(g36
I00
tp232
(g5
I00
tp233
(g21
I00
tp234
(g11
I00
tp235
tp236
I5
tp237
I70
s(((g1
I00
tp238
(g16
I00
tp239
(g18
I00
tp240
(g21
I00
tp241
(g9
I00
tp242
(g3
I01
tp243
tp244
I5
tp245
I61
s(((g1
I00
tp246
(g16
I00
tp247
(g3
I00
tp248
(g5
I00
tp249
(g47
I00
tp250
(g21
I00
tp251
tp252
I4
tp253
I238
s(((g18
I00
tp254
(g36
I00
tp255
(g47
I00
tp256
(g21
I00
tp257
(g9
I00
tp258
(g11
I00
tp259
tp260
I5
tp261
I238
s(((g18
I00
tp262
(g16
I00
tp263
(g7
I00
tp264
(g9
I00
tp265
(g3
I01
tp266
(g39
I01
tp267
tp268
I5
tp269
I7
s(((g18
I00
tp270
(g3
I00
tp271
(g47
I00
tp272
(g21
I00
tp273
(g7
I00
tp274
(g9
I00
tp275
tp276
I5
tp277
I130
s(((g16
I00
tp278
(g36
I00
tp279
(g54
I00
tp280
(g18
I00
tp281
(g5
I00
tp282
(g9
I00
tp283
tp284
I4
tp285
I38
s(((g3
I00
tp286
(g5
I00
tp287
(g7
I00
tp288
(g9
I00
tp289
(g11
I00
tp290
(g21
I01
tp291
tp292
I5
tp293
I158
s(((g1
I00
tp294
(g3
I00
tp295
(g47
I00
tp296
(g21
I00
tp297
(g9
I00
tp298
(g16
I01
tp299
tp300
I5
tp301
I14
s(((g1
I00
tp302
(g18
I00
tp303
(g54
I00
tp304
(g5
I00
tp305
(g7
I00
tp306
(g9
I00
tp307
tp308
I5
tp309
I340
s(((g1
I00
tp310
(g16
I00
tp311
(g3
I00
tp312
(g5
I00
tp313
(g21
I00
tp314
(g18
I01
tp315
tp316
I5
tp317
I132
s(((g54
I00
tp318
(g5
I00
tp319
(g21
I00
tp320
(g7
I00
tp321
(g9
I00
tp322
(g11
I00
tp323
tp324
I3
tp325
I509
s(((g1
I00
tp326
(g18
I00
tp327
(g54
I00
tp328
(g7
I00
tp329
(g9
I00
tp330
(g11
I00
tp331
tp332
I5
tp333
I238
s(((g18
I00
tp334
(g36
I00
tp335
(g47
I00
tp336
(g7
I00
tp337
(g9
I00
tp338
(g21
I01
tp339
tp340
I5
tp341
I66
s(((g1
I00
tp342
(g16
I00
tp343
(g3
I00
tp344
(g47
I00
tp345
(g21
I00
tp346
(g9
I00
tp347
tp348
I5
tp349
I26
s(((g1
I00
tp350
(g39
I00
tp351
(g3
I00
tp352
(g47
I00
tp353
(g21
I00
tp354
(g11
I00
tp355
tp356
I3
tp357
I136
s(((g18
I00
tp358
(g16
I00
tp359
(g5
I00
tp360
(g39
I00
tp361
(g21
I00
tp362
(g7
I00
tp363
tp364
I5
tp365
I102
s(((g3
I00
tp366
(g5
I00
tp367
(g47
I00
tp368
(g21
I00
tp369
(g7
I00
tp370
(g11
I00
tp371
tp372
I4
tp373
I119
s(((g16
I00
tp374
(g36
I00
tp375
(g5
I00
tp376
(g21
I00
tp377
(g7
I00
tp378
(g11
I00
tp379
tp380
I5
tp381
I77
s(((g18
I00
tp382
(g3
I00
tp383
(g5
I00
tp384
(g39
I00
tp385
(g21
I00
tp386
(g7
I00
tp387
tp388
I5
tp389
I34
s(((g1
I00
tp390
(g36
I00
tp391
(g47
I00
tp392
(g21
I00
tp393
(g9
I00
tp394
(g11
I00
tp395
tp396
I4
tp397
I7
s(((g1
I00
tp398
(g16
I00
tp399
(g18
I00
tp400
(g21
I00
tp401
(g9
I00
tp402
(g11
I00
tp403
tp404
I5
tp405
I12
s(((g18
I00
tp406
(g36
I00
tp407
(g47
I00
tp408
(g7
I00
tp409
(g16
I01
tp410
(g21
I01
tp411
tp412
I5
tp413
I25
s(((g1
I00
tp414
(g18
I00
tp415
(g36
I00
tp416
(g5
I00
tp417
(g21
I00
tp418
(g11
I00
tp419
tp420
I5
tp421
I26
s(((g1
I00
tp422
(g16
I00
tp423
(g5
I00
tp424
(g21
I00
tp425
(g9
I00
tp426
(g18
I01
tp427
tp428
I5
tp429
I66
s(((g1
I00
tp430
(g36
I00
tp431
(g5
I00
tp432
(g7
I00
tp433
(g9
I00
tp434
(g54
I01
tp435
tp436
I5
tp437
I102
s(((g16
I00
tp438
(g3
I00
tp439
(g21
I00
tp440
(g7
I00
tp441
(g9
I00
tp442
(g11
I00
tp443
tp444
I5
tp445
I408
s(((g16
I00
tp446
(g54
I00
tp447
(g5
I00
tp448
(g7
I00
tp449
(g9
I00
tp450
(g36
I01
tp451
tp452
I5
tp453
I114
s(((g16
I00
tp454
(g5
I00
tp455
(g39
I00
tp456
(g21
I00
tp457
(g7
I00
tp458
(g18
I01
tp459
tp460
I5
tp461
I3
s(((g36
I00
tp462
(g54
I00
tp463
(g16
I00
tp464
(g5
I00
tp465
(g39
I00
tp466
(g18
I01
tp467
tp468
I5
tp469
I128
s(((g1
I00
tp470
(g16
I00
tp471
(g36
I00
tp472
(g5
I00
tp473
(g21
I00
tp474
(g18
I01
tp475
tp476
I5
tp477
I132
s(((g36
I00
tp478
(g54
I00
tp479
(g5
I00
tp480
(g7
I00
tp481
(g9
I00
tp482
(g11
I00
tp483
tp484
I5
tp485
I113
s(((g1
I00
tp486
(g16
I00
tp487
(g3
I00
tp488
(g5
I00
tp489
(g21
I00
tp490
(g9
I00
tp491
tp492
I5
tp493
I90
s(((g36
I00
tp494
(g16
I00
tp495
(g47
I00
tp496
(g21
I00
tp497
(g7
I00
tp498
(g18
I01
tp499
tp500
I5
tp501
I25
s(((g3
I00
tp502
(g5
I00
tp503
(g21
I00
tp504
(g7
I00
tp505
(g11
I00
tp506
(g47
I01
tp507
tp508
I5
tp509
I119
s(((g3
I00
tp510
(g5
I00
tp511
(g21
I00
tp512
(g9
I00
tp513
(g11
I00
tp514
(g1
I01
tp515
tp516
I5
tp517
I50
s(((g18
I00
tp518
(g3
I00
tp519
(g47
I00
tp520
(g7
I00
tp521
(g9
I00
tp522
(g21
I01
tp523
tp524
I5
tp525
I70
s(((g36
I00
tp526
(g3
I00
tp527
(g21
I00
tp528
(g7
I00
tp529
(g9
I00
tp530
(g11
I00
tp531
tp532
I5
tp533
I102
s(((g18
I00
tp534
(g36
I00
tp535
(g5
I00
tp536
(g21
I00
tp537
(g9
I00
tp538
(g47
I01
tp539
tp540
I5
tp541
I85
s(((g16
I00
tp542
(g36
I00
tp543
(g5
I00
tp544
(g7
I00
tp545
(g9
I00
tp546
(g18
I01
tp547
tp548
I5
tp549
I165
s(((g1
I00
tp550
(g16
I00
tp551
(g3
I00
tp552
(g39
I00
tp553
(g21
I00
tp554
(g11
I00
tp555
tp556
I5
tp557
I102
s(((g18
I00
tp558
(g36
I00
tp559
(g16
I00
tp560
(g5
I00
tp561
(g39
I00
tp562
(g7
I00
tp563
tp564
I5
tp565
I680
s(((g16
I00
tp566
(g18
I00
tp567
(g5
I00
tp568
(g21
I00
tp569
(g7
I00
tp570
(g9
I00
tp571
tp572
I4
tp573
I102
s(((g16
I00
tp574
(g36
I00
tp575
(g18
I00
tp576
(g21
I00
tp577
(g9
I00
tp578
(g1
I01
tp579
tp580
I5
tp581
I119
s(((g16
I00
tp582
(g36
I00
tp583
(g18
I00
tp584
(g5
I00
tp585
(g21
I00
tp586
(g9
I00
tp587
tp588
I4
tp589
I206
s(((g1
I00
tp590
(g16
I00
tp591
(g5
I00
tp592
(g47
I00
tp593
(g21
I00
tp594
(g18
I01
tp595
tp596
I4
tp597
I66
s(((g1
I00
tp598
(g16
I00
tp599
(g36
I00
tp600
(g5
I00
tp601
(g21
I00
tp602
(g9
I00
tp603
tp604
I5
tp605
I68
s(((g3
I00
tp606
(g47
I00
tp607
(g7
I00
tp608
(g9
I00
tp609
(g16
I01
tp610
(g21
I01
tp611
tp612
I5
tp613
I116
s(((g1
I00
tp614
(g18
I00
tp615
(g39
I00
tp616
(g21
I00
tp617
(g11
I00
tp618
(g9
I01
tp619
tp620
I5
tp621
I12
s(((g3
I00
tp622
(g5
I00
tp623
(g21
I00
tp624
(g7
I00
tp625
(g9
I00
tp626
(g11
I00
tp627
tp628
I5
tp629
I102
s(((g1
I00
tp630
(g3
I00
tp631
(g5
I00
tp632
(g47
I00
tp633
(g21
I00
tp634
(g11
I00
tp635
tp636
I5
tp637
I102
s(((g1
I00
tp638
(g3
I00
tp639
(g5
I00
tp640
(g9
I00
tp641
(g11
I00
tp642
(g21
I01
tp643
tp644
I5
tp645
I50
s(((g36
I00
tp646
(g47
I00
tp647
(g7
I00
tp648
(g9
I00
tp649
(g16
I01
tp650
(g21
I01
tp651
tp652
I5
tp653
I54
s(((g5
I00
tp654
(g21
I00
tp655
(g11
I00
tp656
(g1
I01
tp657
(g7
I01
tp658
(g9
I01
tp659
tp660
I5
tp661
I102
s(((g3
I00
tp662
(g47
I00
tp663
(g7
I00
tp664
(g9
I00
tp665
(g16
I01
tp666
(g39
I01
tp667
tp668
I5
tp669
I8
s(((g1
I00
tp670
(g18
I00
tp671
(g16
I00
tp672
(g5
I00
tp673
(g47
I00
tp674
(g21
I00
tp675
tp676
I5
tp677
I102
s(((g18
I00
tp678
(g36
I00
tp679
(g16
I00
tp680
(g47
I00
tp681
(g21
I00
tp682
(g9
I00
tp683
tp684
I5
tp685
I102
s(((g18
I00
tp686
(g36
I00
tp687
(g5
I00
tp688
(g47
I00
tp689
(g21
I00
tp690
(g7
I00
tp691
tp692
I5
tp693
I11
s(((g1
I00
tp694
(g18
I00
tp695
(g16
I00
tp696
(g21
I00
tp697
(g9
I00
tp698
(g39
I01
tp699
tp700
I5
tp701
I110
s(((g18
I00
tp702
(g54
I00
tp703
(g21
I00
tp704
(g7
I00
tp705
(g9
I00
tp706
(g11
I00
tp707
tp708
I4
tp709
I102
s(((g36
I00
tp710
(g5
I00
tp711
(g7
I00
tp712
(g9
I00
tp713
(g11
I00
tp714
(g54
I01
tp715
tp716
I4
tp717
I363
s(((g18
I00
tp718
(g36
I00
tp719
(g21
I00
tp720
(g7
I00
tp721
(g11
I00
tp722
(g5
I01
tp723
tp724
I5
tp725
I56
s(((g16
I00
tp726
(g36
I00
tp727
(g47
I00
tp728
(g21
I00
tp729
(g7
I00
tp730
(g5
I01
tp731
tp732
I5
tp733
I32
s(((g18
I00
tp734
(g36
I00
tp735
(g5
I00
tp736
(g9
I00
tp737
(g1
I01
tp738
(g7
I01
tp739
tp740
I5
tp741
I19
s(((g16
I00
tp742
(g18
I00
tp743
(g21
I00
tp744
(g7
I00
tp745
(g9
I00
tp746
(g3
I01
tp747
tp748
I5
tp749
I55
s(((g1
I00
tp750
(g16
I00
tp751
(g36
I00
tp752
(g21
I00
tp753
(g11
I00
tp754
(g5
I01
tp755
tp756
I5
tp757
I70
s(((g18
I00
tp758
(g36
I00
tp759
(g16
I00
tp760
(g5
I00
tp761
(g39
I00
tp762
(g21
I00
tp763
tp764
I5
tp765
I102
s(((g1
I00
tp766
(g18
I00
tp767
(g39
I00
tp768
(g47
I00
tp769
(g21
I00
tp770
(g11
I00
tp771
tp772
I5
tp773
I34
s(((g16
I00
tp774
(g36
I00
tp775
(g5
I00
tp776
(g47
I00
tp777
(g21
I00
tp778
(g7
I00
tp779
tp780
I5
tp781
I80
s(((g36
I00
tp782
(g54
I00
tp783
(g5
I00
tp784
(g7
I00
tp785
(g9
I00
tp786
(g16
I01
tp787
tp788
I5
tp789
I224
s(((g1
I00
tp790
(g3
I00
tp791
(g5
I00
tp792
(g39
I00
tp793
(g21
I00
tp794
(g16
I01
tp795
tp796
I5
tp797
I96
s(((g39
I00
tp798
(g36
I00
tp799
(g47
I00
tp800
(g7
I00
tp801
(g9
I00
tp802
(g18
I01
tp803
tp804
I5
tp805
I85
s(((g16
I00
tp806
(g36
I00
tp807
(g5
I00
tp808
(g21
I00
tp809
(g9
I00
tp810
(g18
I01
tp811
tp812
I5
tp813
I66
s(((g1
I00
tp814
(g18
I00
tp815
(g36
I00
tp816
(g47
I00
tp817
(g21
I00
tp818
(g9
I00
tp819
tp820
I5
tp821
I34
s(((g18
I00
tp822
(g3
I00
tp823
(g5
I00
tp824
(g21
I00
tp825
(g7
I00
tp826
(g11
I00
tp827
tp828
I4
tp829
I238
s(((g16
I00
tp830
(g3
I00
tp831
(g5
I00
tp832
(g21
I00
tp833
(g7
I00
tp834
(g9
I00
tp835
tp836
I5
tp837
I9
s(((g16
I00
tp838
(g21
I00
tp839
(g9
I00
tp840
(g11
I00
tp841
(g1
I01
tp842
(g7
I01
tp843
tp844
I5
tp845
I105
s(((g18
I00
tp846
(g5
I00
tp847
(g7
I00
tp848
(g9
I00
tp849
(g11
I00
tp850
(g54
I01
tp851
tp852
I5
tp853
I792
s(((g1
I00
tp854
(g16
I00
tp855
(g3
I00
tp856
(g21
I00
tp857
(g9
I00
tp858
(g18
I01
tp859
tp860
I5
tp861
I33
s(((g16
I00
tp862
(g18
I00
tp863
(g21
I00
tp864
(g7
I00
tp865
(g11
I00
tp866
(g36
I01
tp867
tp868
I5
tp869
I21
s(((g1
I00
tp870
(g16
I00
tp871
(g36
I00
tp872
(g18
I00
tp873
(g47
I00
tp874
(g21
I00
tp875
tp876
I5
tp877
I34
s(((g16
I00
tp878
(g3
I00
tp879
(g36
I00
tp880
(g5
I00
tp881
(g21
I00
tp882
(g18
I01
tp883
tp884
I5
tp885
I132
s(((g1
I00
tp886
(g16
I00
tp887
(g18
I00
tp888
(g21
I00
tp889
(g11
I00
tp890
(g9
I01
tp891
tp892
I5
tp893
I11
s(((g1
I00
tp894
(g16
I00
tp895
(g3
I00
tp896
(g47
I00
tp897
(g21
I00
tp898
(g11
I00
tp899
tp900
I4
tp901
I102
s(((g16
I00
tp902
(g5
I00
tp903
(g21
I00
tp904
(g7
I00
tp905
(g11
I00
tp906
(g36
I01
tp907
tp908
I5
tp909
I77
s(((g36
I00
tp910
(g18
I00
tp911
(g7
I00
tp912
(g11
I00
tp913
(g16
I01
tp914
(g21
I01
tp915
tp916
I5
tp917
I21
s(((g1
I00
tp918
(g16
I00
tp919
(g3
I00
tp920
(g5
I00
tp921
(g21
I00
tp922
(g11
I00
tp923
tp924
I5
tp925
I102
s(((g1
I00
tp926
(g3
I00
tp927
(g39
I00
tp928
(g21
I00
tp929
(g11
I00
tp930
(g16
I01
tp931
tp932
I5
tp933
I11
s(((g1
I00
tp934
(g3
I00
tp935
(g36
I00
tp936
(g5
I00
tp937
(g7
I00
tp938
(g11
I00
tp939
tp940
I5
tp941
I34
s(((g1
I00
tp942
(g16
I00
tp943
(g3
I00
tp944
(g18
I00
tp945
(g5
I00
tp946
(g21
I00
tp947
tp948
I4
tp949
I7
s(((g1
I00
tp950
(g36
I00
tp951
(g18
I00
tp952
(g5
I00
tp953
(g7
I00
tp954
(g16
I01
tp955
tp956
I5
tp957
I60
s(((g36
I00
tp958
(g5
I00
tp959
(g21
I00
tp960
(g7
I00
tp961
(g9
I00
tp962
(g18
I01
tp963
tp964
I5
tp965
I132
s(((g1
I00
tp966
(g16
I00
tp967
(g36
I00
tp968
(g18
I00
tp969
(g7
I00
tp970
(g9
I00
tp971
tp972
I5
tp973
I291
s(((g18
I00
tp974
(g36
I00
tp975
(g16
I00
tp976
(g5
I00
tp977
(g39
I00
tp978
(g54
I01
tp979
tp980
I5
tp981
I10
s(((g36
I00
tp982
(g47
I00
tp983
(g21
I00
tp984
(g7
I00
tp985
(g9
I00
tp986
(g16
I01
tp987
tp988
I5
tp989
I48
s(((g5
I00
tp990
(g21
I00
tp991
(g9
I00
tp992
(g11
I00
tp993
(g1
I01
tp994
(g7
I01
tp995
tp996
I5
tp997
I96
s(((g16
I00
tp998
(g36
I00
tp999
(g5
I00
tp1000
(g21
I00
tp1001
(g7
I00
tp1002
(g47
I01
tp1003
tp1004
I5
tp1005
I40
s(((g36
I00
tp1006
(g5
I00
tp1007
(g21
I00
tp1008
(g7
I00
tp1009
(g11
I00
tp1010
(g16
I01
tp1011
tp1012
I5
tp1013
I66
s(((g16
I00
tp1014
(g18
I00
tp1015
(g21
I00
tp1016
(g1
I01
tp1017
(g7
I01
tp1018
(g9
I01
tp1019
tp1020
I5
tp1021
I320
s(((g36
I00
tp1022
(g16
I00
tp1023
(g5
I00
tp1024
(g39
I00
tp1025
(g21
I00
tp1026
(g18
I01
tp1027
tp1028
I5
tp1029
I96
s(((g16
I00
tp1030
(g36
I00
tp1031
(g47
I00
tp1032
(g21
I00
tp1033
(g7
I00
tp1034
(g9
I00
tp1035
tp1036
I5
tp1037
I238
s(((g16
I00
tp1038
(g36
I00
tp1039
(g5
I00
tp1040
(g21
I00
tp1041
(g7
I00
tp1042
(g9
I00
tp1043
tp1044
I5
tp1045
I340
s(((g16
I00
tp1046
(g36
I00
tp1047
(g18
I00
tp1048
(g47
I00
tp1049
(g21
I00
tp1050
(g9
I00
tp1051
tp1052
I5
tp1053
I34
s(((g18
I00
tp1054
(g47
I00
tp1055
(g21
I00
tp1056
(g9
I00
tp1057
(g11
I00
tp1058
(g1
I01
tp1059
tp1060
I5
tp1061
I2
s(((g3
I00
tp1062
(g47
I00
tp1063
(g21
I00
tp1064
(g7
I00
tp1065
(g9
I00
tp1066
(g16
I01
tp1067
tp1068
I5
tp1069
I116
s(((g1
I00
tp1070
(g16
I00
tp1071
(g21
I00
tp1072
(g7
I00
tp1073
(g9
I00
tp1074
(g11
I00
tp1075
tp1076
I4
tp1077
I170
s(((g18
I00
tp1078
(g36
I00
tp1079
(g5
I00
tp1080
(g21
I00
tp1081
(g7
I00
tp1082
(g9
I00
tp1083
tp1084
I5
tp1085
I140
s(((g1
I00
tp1086
(g18
I00
tp1087
(g47
I00
tp1088
(g21
I00
tp1089
(g9
I00
tp1090
(g11
I00
tp1091
tp1092
I3
tp1093
I102
s(((g1
I00
tp1094
(g3
I00
tp1095
(g7
I00
tp1096
(g9
I00
tp1097
(g11
I00
tp1098
(g54
I01
tp1099
tp1100
I5
tp1101
I17
s(((g1
I00
tp1102
(g16
I00
tp1103
(g54
I00
tp1104
(g5
I00
tp1105
(g7
I00
tp1106
(g9
I00
tp1107
tp1108
I5
tp1109
I276
s(((g36
I00
tp1110
(g5
I00
tp1111
(g11
I00
tp1112
(g1
I01
tp1113
(g7
I01
tp1114
(g9
I01
tp1115
tp1116
I5
tp1117
I165
s(((g18
I00
tp1118
(g54
I00
tp1119
(g21
I00
tp1120
(g7
I00
tp1121
(g9
I00
tp1122
(g11
I00
tp1123
tp1124
I1
tp1125
I102
s(((g36
I00
tp1126
(g18
I00
tp1127
(g21
I00
tp1128
(g7
I00
tp1129
(g11
I00
tp1130
(g16
I01
tp1131
tp1132
I5
tp1133
I18
s(((g1
I00
tp1134
(g16
I00
tp1135
(g47
I00
tp1136
(g21
I00
tp1137
(g9
I00
tp1138
(g11
I00
tp1139
tp1140
I5
tp1141
I102
s(((g1
I00
tp1142
(g16
I00
tp1143
(g3
I00
tp1144
(g21
I00
tp1145
(g11
I00
tp1146
(g39
I01
tp1147
tp1148
I5
tp1149
I11
s(((g1
I00
tp1150
(g3
I00
tp1151
(g5
I00
tp1152
(g21
I00
tp1153
(g7
I00
tp1154
(g11
I00
tp1155
tp1156
I5
tp1157
I102
s(((g18
I00
tp1158
(g36
I00
tp1159
(g5
I00
tp1160
(g21
I00
tp1161
(g7
I00
tp1162
(g11
I00
tp1163
tp1164
I5
tp1165
I104
s(((g18
I00
tp1166
(g36
I00
tp1167
(g54
I00
tp1168
(g16
I00
tp1169
(g5
I00
tp1170
(g39
I00
tp1171
tp1172
I5
tp1173
I10
s(((g18
I00
tp1174
(g36
I00
tp1175
(g21
I00
tp1176
(g7
I00
tp1177
(g9
I00
tp1178
(g11
I00
tp1179
tp1180
I5
tp1181
I340
s(((g1
I00
tp1182
(g16
I00
tp1183
(g36
I00
tp1184
(g47
I00
tp1185
(g7
I00
tp1186
(g9
I00
tp1187
tp1188
I5
tp1189
I322
s(((g39
I00
tp1190
(g3
I00
tp1191
(g47
I00
tp1192
(g7
I00
tp1193
(g9
I00
tp1194
(g18
I01
tp1195
tp1196
I5
tp1197
I80
s(((g1
I00
tp1198
(g16
I00
tp1199
(g54
I00
tp1200
(g18
I00
tp1201
(g7
I00
tp1202
(g9
I00
tp1203
tp1204
I5
tp1205
I340
s(((g16
I00
tp1206
(g3
I00
tp1207
(g36
I00
tp1208
(g5
I00
tp1209
(g47
I00
tp1210
(g21
I00
tp1211
tp1212
I5
tp1213
I34
s(((g3
I00
tp1214
(g39
I00
tp1215
(g7
I00
tp1216
(g9
I00
tp1217
(g18
I01
tp1218
(g16
I01
tp1219
tp1220
I5
tp1221
I7
s(((g1
I00
tp1222
(g3
I00
tp1223
(g21
I00
tp1224
(g9
I00
tp1225
(g11
I00
tp1226
(g16
I01
tp1227
tp1228
I5
tp1229
I24
s(((g1
I00
tp1230
(g16
I00
tp1231
(g3
I00
tp1232
(g18
I00
tp1233
(g21
I00
tp1234
(g9
I00
tp1235
tp1236
I5
tp1237
I64
s(((g1
I00
tp1238
(g36
I00
tp1239
(g47
I00
tp1240
(g7
I00
tp1241
(g9
I00
tp1242
(g16
I01
tp1243
tp1244
I5
tp1245
I18
s(((g16
I00
tp1246
(g18
I00
tp1247
(g21
I00
tp1248
(g7
I00
tp1249
(g9
I00
tp1250
(g11
I00
tp1251
tp1252
I5
tp1253
I102
s(((g1
I00
tp1254
(g16
I00
tp1255
(g3
I00
tp1256
(g39
I00
tp1257
(g21
I00
tp1258
(g11
I00
tp1259
tp1260
I2
tp1261
I12
s(((g18
I00
tp1262
(g5
I00
tp1263
(g21
I00
tp1264
(g7
I00
tp1265
(g9
I00
tp1266
(g11
I00
tp1267
tp1268
I4
tp1269
I102
s(((g18
I00
tp1270
(g54
I00
tp1271
(g21
I00
tp1272
(g7
I00
tp1273
(g9
I00
tp1274
(g11
I00
tp1275
tp1276
I2
tp1277
I102
s(((g1
I00
tp1278
(g16
I00
tp1279
(g5
I00
tp1280
(g21
I00
tp1281
(g11
I00
tp1282
(g36
I01
tp1283
tp1284
I5
tp1285
I70
s(((g1
I00
tp1286
(g18
I00
tp1287
(g3
I00
tp1288
(g5
I00
tp1289
(g39
I00
tp1290
(g21
I00
tp1291
tp1292
I5
tp1293
I102
s(((g18
I00
tp1294
(g3
I00
tp1295
(g36
I00
tp1296
(g5
I00
tp1297
(g21
I00
tp1298
(g7
I00
tp1299
tp1300
I5
tp1301
I68
s(((g1
I00
tp1302
(g3
I00
tp1303
(g21
I00
tp1304
(g9
I00
tp1305
(g11
I00
tp1306
(g5
I01
tp1307
tp1308
I5
tp1309
I50
s(((g1
I00
tp1310
(g16
I00
tp1311
(g36
I00
tp1312
(g18
I00
tp1313
(g7
I00
tp1314
(g5
I01
tp1315
tp1316
I5
tp1317
I70
s(((g16
I00
tp1318
(g36
I00
tp1319
(g3
I00
tp1320
(g21
I00
tp1321
(g7
I00
tp1322
(g11
I00
tp1323
tp1324
I5
tp1325
I34
s(((g1
I00
tp1326
(g18
I00
tp1327
(g21
I00
tp1328
(g7
I00
tp1329
(g9
I00
tp1330
(g11
I00
tp1331
tp1332
I5
tp1333
I102
s(((g36
I00
tp1334
(g47
I00
tp1335
(g21
I00
tp1336
(g7
I00
tp1337
(g9
I00
tp1338
(g11
I00
tp1339
tp1340
I5
tp1341
I338
s(((g1
I00
tp1342
(g18
I00
tp1343
(g39
I00
tp1344
(g21
I00
tp1345
(g9
I00
tp1346
(g11
I00
tp1347
tp1348
I5
tp1349
I22
s(((g36
I00
tp1350
(g54
I00
tp1351
(g5
I00
tp1352
(g7
I00
tp1353
(g9
I00
tp1354
(g18
I01
tp1355
tp1356
I5
tp1357
I132
s(((g3
I00
tp1358
(g47
I00
tp1359
(g7
I00
tp1360
(g9
I00
tp1361
(g18
I01
tp1362
(g39
I01
tp1363
tp1364
I5
tp1365
I80
s(((g1
I00
tp1366
(g16
I00
tp1367
(g47
I00
tp1368
(g21
I00
tp1369
(g9
I00
tp1370
(g11
I00
tp1371
tp1372
I2
tp1373
I1
s(((g16
I00
tp1374
(g3
I00
tp1375
(g36
I00
tp1376
(g5
I00
tp1377
(g21
I00
tp1378
(g7
I00
tp1379
tp1380
I5
tp1381
I136
s(((g18
I00
tp1382
(g39
I00
tp1383
(g11
I00
tp1384
(g36
I01
tp1385
(g5
I01
tp1386
(g21
I01
tp1387
tp1388
I5
tp1389
I6
s(((g1
I00
tp1390
(g3
I00
tp1391
(g21
I00
tp1392
(g7
I00
tp1393
(g9
I00
tp1394
(g11
I00
tp1395
tp1396
I5
tp1397
I102
s(((g3
I00
tp1398
(g47
I00
tp1399
(g21
I00
tp1400
(g7
I00
tp1401
(g9
I00
tp1402
(g11
I00
tp1403
tp1404
I5
tp1405
I631
s(((g1
I00
tp1406
(g18
I00
tp1407
(g5
I00
tp1408
(g21
I00
tp1409
(g7
I00
tp1410
(g11
I00
tp1411
tp1412
I5
tp1413
I34
s(((g1
I00
tp1414
(g16
I00
tp1415
(g36
I00
tp1416
(g18
I00
tp1417
(g5
I00
tp1418
(g21
I00
tp1419
tp1420
I4
tp1421
I7
s(((g36
I00
tp1422
(g5
I00
tp1423
(g21
I00
tp1424
(g7
I00
tp1425
(g9
I00
tp1426
(g11
I00
tp1427
tp1428
I5
tp1429
I102
s(((g39
I00
tp1430
(g36
I00
tp1431
(g47
I00
tp1432
(g7
I00
tp1433
(g9
I00
tp1434
(g11
I00
tp1435
tp1436
I5
tp1437
I374
s(((g16
I00
tp1438
(g3
I00
tp1439
(g5
I00
tp1440
(g47
I00
tp1441
(g21
I00
tp1442
(g7
I00
tp1443
tp1444
I5
tp1445
I51
s(((g18
I00
tp1446
(g5
I00
tp1447
(g21
I00
tp1448
(g7
I00
tp1449
(g9
I00
tp1450
(g11
I00
tp1451
tp1452
I5
tp1453
I136
s(((g3
I00
tp1454
(g21
I00
tp1455
(g7
I00
tp1456
(g9
I00
tp1457
(g11
I00
tp1458
(g5
I01
tp1459
tp1460
I5
tp1461
I56
s(((g1
I00
tp1462
(g16
I00
tp1463
(g3
I00
tp1464
(g5
I00
tp1465
(g7
I00
tp1466
(g9
I00
tp1467
tp1468
I5
tp1469
I42
s(((g18
I00
tp1470
(g16
I00
tp1471
(g47
I00
tp1472
(g21
I00
tp1473
(g7
I00
tp1474
(g36
I01
tp1475
tp1476
I5
tp1477
I25
s(((g1
I00
tp1478
(g36
I00
tp1479
(g5
I00
tp1480
(g21
I00
tp1481
(g11
I00
tp1482
(g16
I01
tp1483
tp1484
I5
tp1485
I60
s(((g16
I00
tp1486
(g3
I00
tp1487
(g36
I00
tp1488
(g21
I00
tp1489
(g7
I00
tp1490
(g11
I00
tp1491
tp1492
I5
tp1493
I68
s(((g1
I00
tp1494
(g18
I00
tp1495
(g5
I00
tp1496
(g47
I00
tp1497
(g21
I00
tp1498
(g9
I00
tp1499
tp1500
I5
tp1501
I340
s(((g18
I00
tp1502
(g36
I00
tp1503
(g16
I00
tp1504
(g39
I00
tp1505
(g21
I00
tp1506
(g9
I00
tp1507
tp1508
I5
tp1509
I34
s(((g1
I00
tp1510
(g3
I00
tp1511
(g5
I00
tp1512
(g7
I00
tp1513
(g9
I00
tp1514
(g11
I01
tp1515
tp1516
I5
tp1517
I6
s(((g1
I00
tp1518
(g3
I00
tp1519
(g18
I00
tp1520
(g21
I00
tp1521
(g9
I00
tp1522
(g16
I01
tp1523
tp1524
I5
tp1525
I24
s(((g16
I00
tp1526
(g18
I00
tp1527
(g21
I00
tp1528
(g7
I00
tp1529
(g9
I00
tp1530
(g54
I01
tp1531
tp1532
I5
tp1533
I132
s(((g18
I00
tp1534
(g39
I00
tp1535
(g36
I00
tp1536
(g47
I00
tp1537
(g7
I00
tp1538
(g9
I00
tp1539
tp1540
I5
tp1541
I357
s(((g1
I00
tp1542
(g3
I00
tp1543
(g47
I00
tp1544
(g7
I00
tp1545
(g9
I00
tp1546
(g11
I00
tp1547
tp1548
I5
tp1549
I170
s(((g16
I00
tp1550
(g36
I00
tp1551
(g7
I00
tp1552
(g9
I00
tp1553
(g11
I00
tp1554
(g54
I01
tp1555
tp1556
I5
tp1557
I462
s(((g16
I00
tp1558
(g5
I00
tp1559
(g47
I00
tp1560
(g21
I00
tp1561
(g7
I00
tp1562
(g36
I01
tp1563
tp1564
I5
tp1565
I40
s(((g16
I00
tp1566
(g36
I00
tp1567
(g18
I00
tp1568
(g7
I00
tp1569
(g9
I00
tp1570
(g54
I01
tp1571
tp1572
I5
tp1573
I132
s(((g16
I00
tp1574
(g36
I00
tp1575
(g5
I00
tp1576
(g7
I00
tp1577
(g9
I00
tp1578
(g54
I01
tp1579
tp1580
I5
tp1581
I501
s(((g1
I00
tp1582
(g18
I00
tp1583
(g47
I00
tp1584
(g21
I00
tp1585
(g9
I00
tp1586
(g11
I00
tp1587
tp1588
I4
tp1589
I102
s(((g1
I00
tp1590
(g16
I00
tp1591
(g47
I00
tp1592
(g7
I00
tp1593
(g9
I00
tp1594
(g3
I01
tp1595
tp1596
I5
tp1597
I105
s(((g5
I00
tp1598
(g21
I00
tp1599
(g7
I00
tp1600
(g9
I00
tp1601
(g18
I01
tp1602
(g54
I01
tp1603
tp1604
I5
tp1605
I297
s(((g1
I00
tp1606
(g36
I00
tp1607
(g47
I00
tp1608
(g7
I00
tp1609
(g9
I00
tp1610
(g11
I00
tp1611
tp1612
I5
tp1613
I612
s(((g18
I00
tp1614
(g36
I00
tp1615
(g54
I00
tp1616
(g5
I00
tp1617
(g7
I00
tp1618
(g9
I00
tp1619
tp1620
I4
tp1621
I55743
s(((g1
I00
tp1622
(g18
I00
tp1623
(g3
I00
tp1624
(g39
I00
tp1625
(g21
I00
tp1626
(g5
I01
tp1627
tp1628
I5
tp1629
I7
s(((g16
I00
tp1630
(g54
I00
tp1631
(g5
I00
tp1632
(g7
I00
tp1633
(g9
I00
tp1634
(g18
I01
tp1635
tp1636
I5
tp1637
I132
s(((g18
I00
tp1638
(g3
I00
tp1639
(g21
I00
tp1640
(g7
I00
tp1641
(g9
I00
tp1642
(g11
I00
tp1643
tp1644
I5
tp1645
I136
s(((g5
I00
tp1646
(g47
I00
tp1647
(g21
I00
tp1648
(g7
I00
tp1649
(g11
I00
tp1650
(g36
I01
tp1651
tp1652
I5
tp1653
I60
s(((g16
I00
tp1654
(g36
I00
tp1655
(g54
I00
tp1656
(g5
I00
tp1657
(g9
I00
tp1658
(g7
I01
tp1659
tp1660
I5
tp1661
I137
s(((g1
I00
tp1662
(g3
I00
tp1663
(g5
I00
tp1664
(g39
I00
tp1665
(g21
I00
tp1666
(g18
I01
tp1667
tp1668
I4
tp1669
I93
s(((g18
I00
tp1670
(g36
I00
tp1671
(g16
I00
tp1672
(g39
I00
tp1673
(g7
I00
tp1674
(g9
I00
tp1675
tp1676
I5
tp1677
I612
s(((g18
I00
tp1678
(g36
I00
tp1679
(g39
I00
tp1680
(g5
I01
tp1681
(g21
I01
tp1682
(g11
I01
tp1683
tp1684
I5
tp1685
I1
s(((g16
I00
tp1686
(g3
I00
tp1687
(g18
I00
tp1688
(g5
I00
tp1689
(g21
I00
tp1690
(g7
I00
tp1691
tp1692
I5
tp1693
I34
s(((g16
I00
tp1694
(g21
I00
tp1695
(g7
I00
tp1696
(g9
I00
tp1697
(g11
I00
tp1698
(g1
I01
tp1699
tp1700
I5
tp1701
I15
s(((g16
I00
tp1702
(g36
I00
tp1703
(g18
I00
tp1704
(g5
I00
tp1705
(g7
I00
tp1706
(g1
I01
tp1707
tp1708
I5
tp1709
I70
s(((g1
I00
tp1710
(g16
I00
tp1711
(g3
I00
tp1712
(g5
I00
tp1713
(g21
I00
tp1714
(g7
I00
tp1715
tp1716
I5
tp1717
I17
s(((g1
I00
tp1718
(g3
I00
tp1719
(g5
I00
tp1720
(g7
I00
tp1721
(g9
I00
tp1722
(g11
I00
tp1723
tp1724
I5
tp1725
I102
s(((g36
I00
tp1726
(g5
I00
tp1727
(g47
I00
tp1728
(g7
I00
tp1729
(g16
I01
tp1730
(g21
I01
tp1731
tp1732
I5
tp1733
I40
s(((g16
I00
tp1734
(g54
I00
tp1735
(g5
I00
tp1736
(g21
I00
tp1737
(g7
I00
tp1738
(g9
I00
tp1739
tp1740
I5
tp1741
I102
s(((g16
I00
tp1742
(g54
I00
tp1743
(g18
I00
tp1744
(g21
I00
tp1745
(g7
I00
tp1746
(g9
I00
tp1747
tp1748
I3
tp1749
I4
s(((g18
I00
tp1750
(g36
I00
tp1751
(g54
I00
tp1752
(g5
I00
tp1753
(g7
I00
tp1754
(g9
I01
tp1755
tp1756
I5
tp1757
I55606
s(((g18
I00
tp1758
(g36
I00
tp1759
(g21
I00
tp1760
(g11
I00
tp1761
(g5
I01
tp1762
(g39
I01
tp1763
tp1764
I5
tp1765
I2
s(((g16
I00
tp1766
(g3
I00
tp1767
(g5
I00
tp1768
(g21
I00
tp1769
(g7
I00
tp1770
(g11
I00
tp1771
tp1772
I4
tp1773
I238
s(((g18
I00
tp1774
(g5
I00
tp1775
(g39
I00
tp1776
(g21
I00
tp1777
(g11
I00
tp1778
(g36
I01
tp1779
tp1780
I5
tp1781
I7
s(((g1
I00
tp1782
(g3
I00
tp1783
(g7
I00
tp1784
(g9
I00
tp1785
(g11
I00
tp1786
(g5
I01
tp1787
tp1788
I5
tp1789
I116
s(((g1
I00
tp1790
(g3
I00
tp1791
(g5
I00
tp1792
(g21
I00
tp1793
(g7
I00
tp1794
(g11
I00
tp1795
tp1796
I3
tp1797
I204
s(((g18
I00
tp1798
(g54
I00
tp1799
(g5
I00
tp1800
(g21
I00
tp1801
(g7
I00
tp1802
(g9
I00
tp1803
tp1804
I5
tp1805
I383
s(((g1
I00
tp1806
(g18
I00
tp1807
(g3
I00
tp1808
(g39
I00
tp1809
(g5
I01
tp1810
(g21
I01
tp1811
tp1812
I5
tp1813
I7
s(((g36
I00
tp1814
(g16
I00
tp1815
(g39
I00
tp1816
(g7
I00
tp1817
(g9
I00
tp1818
(g18
I01
tp1819
tp1820
I5
tp1821
I102
s(((g54
I00
tp1822
(g5
I00
tp1823
(g21
I00
tp1824
(g7
I00
tp1825
(g11
I00
tp1826
(g9
I01
tp1827
tp1828
I5
tp1829
I1
s(((g16
I00
tp1830
(g18
I00
tp1831
(g21
I00
tp1832
(g7
I00
tp1833
(g1
I01
tp1834
(g9
I01
tp1835
tp1836
I5
tp1837
I87
s(((g16
I00
tp1838
(g36
I00
tp1839
(g18
I00
tp1840
(g5
I00
tp1841
(g21
I00
tp1842
(g7
I00
tp1843
tp1844
I5
tp1845
I102
s(((g18
I00
tp1846
(g3
I00
tp1847
(g7
I00
tp1848
(g9
I00
tp1849
(g11
I00
tp1850
(g21
I01
tp1851
tp1852
I5
tp1853
I88
s(((g1
I00
tp1854
(g3
I00
tp1855
(g5
I00
tp1856
(g39
I00
tp1857
(g21
I00
tp1858
(g11
I00
tp1859
tp1860
I3
tp1861
I18
s(((g3
I00
tp1862
(g16
I00
tp1863
(g39
I00
tp1864
(g7
I00
tp1865
(g9
I00
tp1866
(g18
I01
tp1867
tp1868
I5
tp1869
I6
s(((g16
I00
tp1870
(g3
I00
tp1871
(g18
I00
tp1872
(g21
I00
tp1873
(g7
I00
tp1874
(g9
I00
tp1875
tp1876
I5
tp1877
I60
s(((g3
I00
tp1878
(g21
I00
tp1879
(g7
I00
tp1880
(g9
I00
tp1881
(g11
I00
tp1882
(g18
I01
tp1883
tp1884
I5
tp1885
I88
s(((g1
I00
tp1886
(g16
I00
tp1887
(g3
I00
tp1888
(g5
I00
tp1889
(g39
I00
tp1890
(g21
I00
tp1891
tp1892
I5
tp1893
I136
s(((g5
I00
tp1894
(g21
I00
tp1895
(g11
I00
tp1896
(g1
I01
tp1897
(g7
I01
tp1898
(g9
I01
tp1899
tp1900
I4
tp1901
I132
s(((g1
I00
tp1902
(g16
I00
tp1903
(g3
I00
tp1904
(g5
I00
tp1905
(g47
I00
tp1906
(g21
I00
tp1907
tp1908
I5
tp1909
I102
s(((g16
I00
tp1910
(g5
I00
tp1911
(g21
I00
tp1912
(g7
I00
tp1913
(g9
I00
tp1914
(g3
I01
tp1915
tp1916
I5
tp1917
I9
s(((g1
I00
tp1918
(g18
I00
tp1919
(g5
I00
tp1920
(g21
I00
tp1921
(g9
I00
tp1922
(g3
I01
tp1923
tp1924
I5
tp1925
I44
s(((g16
I00
tp1926
(g3
I00
tp1927
(g47
I00
tp1928
(g21
I00
tp1929
(g7
I00
tp1930
(g9
I00
tp1931
tp1932
I5
tp1933
I343
s(((g3
I00
tp1934
(g36
I00
tp1935
(g5
I00
tp1936
(g21
I00
tp1937
(g7
I00
tp1938
(g11
I00
tp1939
tp1940
I4
tp1941
I34
s(((g18
I00
tp1942
(g36
I00
tp1943
(g16
I00
tp1944
(g21
I00
tp1945
(g7
I00
tp1946
(g47
I01
tp1947
tp1948
I5
tp1949
I25
s(((g1
I00
tp1950
(g18
I00
tp1951
(g16
I00
tp1952
(g47
I00
tp1953
(g21
I00
tp1954
(g9
I00
tp1955
tp1956
I4
tp1957
I238
s(((g18
I00
tp1958
(g36
I00
tp1959
(g39
I00
tp1960
(g11
I00
tp1961
(g5
I01
tp1962
(g21
I01
tp1963
tp1964
I5
tp1965
I1
s(((g16
I00
tp1966
(g36
I00
tp1967
(g54
I00
tp1968
(g18
I00
tp1969
(g5
I00
tp1970
(g9
I00
tp1971
tp1972
I5
tp1973
I102
s(((g1
I00
tp1974
(g18
I00
tp1975
(g21
I00
tp1976
(g9
I00
tp1977
(g11
I00
tp1978
(g39
I01
tp1979
tp1980
I5
tp1981
I12
s(((g16
I00
tp1982
(g36
I00
tp1983
(g39
I00
tp1984
(g7
I00
tp1985
(g9
I00
tp1986
(g11
I00
tp1987
tp1988
I5
tp1989
I306
s(((g18
I00
tp1990
(g47
I00
tp1991
(g21
I00
tp1992
(g7
I00
tp1993
(g9
I00
tp1994
(g3
I01
tp1995
tp1996
I5
tp1997
I70
s(((g16
I00
tp1998
(g36
I00
tp1999
(g21
I00
tp2000
(g7
I00
tp2001
(g11
I00
tp2002
(g5
I01
tp2003
tp2004
I5
tp2005
I77
s(((g16
I00
tp2006
(g21
I00
tp2007
(g11
I00
tp2008
(g1
I01
tp2009
(g7
I01
tp2010
(g9
I01
tp2011
tp2012
I5
tp2013
I128
s(((g1
I00
tp2014
(g18
I00
tp2015
(g16
I00
tp2016
(g5
I00
tp2017
(g47
I00
tp2018
(g21
I00
tp2019
tp2020
I4
tp2021
I6
s(((g16
I00
tp2022
(g54
I00
tp2023
(g18
I00
tp2024
(g7
I00
tp2025
(g9
I00
tp2026
(g11
I00
tp2027
tp2028
I5
tp2029
I4
s(((g18
I00
tp2030
(g36
I00
tp2031
(g39
I00
tp2032
(g21
I00
tp2033
(g11
I00
tp2034
(g5
I01
tp2035
tp2036
I5
tp2037
I1
s(((g36
I00
tp2038
(g5
I00
tp2039
(g21
I00
tp2040
(g7
I00
tp2041
(g9
I00
tp2042
(g11
I00
tp2043
tp2044
I3
tp2045
I170
s(((g16
I00
tp2046
(g3
I00
tp2047
(g36
I00
tp2048
(g18
I00
tp2049
(g5
I00
tp2050
(g21
I00
tp2051
tp2052
I5
tp2053
I102
s(((g1
I00
tp2054
(g3
I00
tp2055
(g5
I00
tp2056
(g39
I00
tp2057
(g21
I00
tp2058
(g11
I00
tp2059
tp2060
I4
tp2061
I102
s(((g1
I00
tp2062
(g18
I00
tp2063
(g16
I00
tp2064
(g47
I00
tp2065
(g21
I00
tp2066
(g9
I00
tp2067
tp2068
I5
tp2069
I102
s(((g18
I00
tp2070
(g16
I00
tp2071
(g5
I00
tp2072
(g39
I00
tp2073
(g21
I00
tp2074
(g7
I00
tp2075
tp2076
I4
tp2077
I139
s(((g3
I00
tp2078
(g54
I00
tp2079
(g47
I00
tp2080
(g7
I00
tp2081
(g9
I00
tp2082
(g11
I00
tp2083
tp2084
I5
tp2085
I17
s(((g18
I00
tp2086
(g36
I00
tp2087
(g5
I00
tp2088
(g21
I00
tp2089
(g7
I00
tp2090
(g47
I01
tp2091
tp2092
I5
tp2093
I6
s(((g16
I00
tp2094
(g21
I00
tp2095
(g7
I00
tp2096
(g11
I00
tp2097
(g1
I01
tp2098
(g9
I01
tp2099
tp2100
I5
tp2101
I15
s(((g3
I00
tp2102
(g5
I00
tp2103
(g47
I00
tp2104
(g21
I00
tp2105
(g7
I00
tp2106
(g11
I00
tp2107
tp2108
I5
tp2109
I102
s(((g36
I00
tp2110
(g54
I00
tp2111
(g21
I00
tp2112
(g7
I00
tp2113
(g9
I00
tp2114
(g11
I00
tp2115
tp2116
I5
tp2117
I68
s(((g18
I00
tp2118
(g3
I00
tp2119
(g7
I00
tp2120
(g9
I00
tp2121
(g11
I00
tp2122
(g54
I01
tp2123
tp2124
I5
tp2125
I132
s(((g1
I00
tp2126
(g5
I00
tp2127
(g7
I00
tp2128
(g9
I00
tp2129
(g11
I00
tp2130
(g54
I01
tp2131
tp2132
I5
tp2133
I148
s(((g1
I00
tp2134
(g16
I00
tp2135
(g21
I00
tp2136
(g7
I00
tp2137
(g9
I00
tp2138
(g11
I00
tp2139
tp2140
I3
tp2141
I15
s(((g1
I00
tp2142
(g36
I00
tp2143
(g5
I00
tp2144
(g11
I00
tp2145
(g16
I01
tp2146
(g21
I01
tp2147
tp2148
I5
tp2149
I70
s(((g1
I00
tp2150
(g3
I00
tp2151
(g54
I00
tp2152
(g7
I00
tp2153
(g9
I00
tp2154
(g11
I00
tp2155
tp2156
I5
tp2157
I17
s(((g1
I00
tp2158
(g16
I00
tp2159
(g3
I00
tp2160
(g21
I00
tp2161
(g9
I00
tp2162
(g11
I00
tp2163
tp2164
I4
tp2165
I95
s(((g1
I00
tp2166
(g16
I00
tp2167
(g36
I00
tp2168
(g21
I00
tp2169
(g9
I00
tp2170
(g11
I00
tp2171
tp2172
I5
tp2173
I34
s(((g36
I00
tp2174
(g54
I00
tp2175
(g16
I00
tp2176
(g5
I00
tp2177
(g39
I00
tp2178
(g18
I01
tp2179
tp2180
I4
tp2181
I96
s(((g1
I00
tp2182
(g39
I00
tp2183
(g3
I00
tp2184
(g47
I00
tp2185
(g9
I00
tp2186
(g11
I00
tp2187
tp2188
I5
tp2189
I204
s(((g36
I00
tp2190
(g54
I00
tp2191
(g5
I00
tp2192
(g7
I00
tp2193
(g9
I00
tp2194
(g11
I00
tp2195
tp2196
I4
tp2197
I616
s(((g1
I00
tp2198
(g18
I00
tp2199
(g36
I00
tp2200
(g5
I00
tp2201
(g11
I00
tp2202
(g21
I01
tp2203
tp2204
I5
tp2205
I14
s(((g16
I00
tp2206
(g3
I00
tp2207
(g21
I00
tp2208
(g7
I00
tp2209
(g9
I00
tp2210
(g18
I01
tp2211
tp2212
I5
tp2213
I55
s(((g36
I00
tp2214
(g3
I00
tp2215
(g21
I00
tp2216
(g7
I00
tp2217
(g9
I00
tp2218
(g11
I00
tp2219
tp2220
I4
tp2221
I102
s(((g36
I00
tp2222
(g54
I00
tp2223
(g5
I00
tp2224
(g9
I00
tp2225
(g1
I01
tp2226
(g7
I01
tp2227
tp2228
I5
tp2229
I3
s(((g16
I00
tp2230
(g5
I00
tp2231
(g39
I00
tp2232
(g7
I00
tp2233
(g18
I01
tp2234
(g21
I01
tp2235
tp2236
I5
tp2237
I96
s(((g3
I00
tp2238
(g47
I00
tp2239
(g21
I00
tp2240
(g7
I00
tp2241
(g9
I00
tp2242
(g18
I01
tp2243
tp2244
I5
tp2245
I70
s(((g16
I00
tp2246
(g18
I00
tp2247
(g5
I00
tp2248
(g21
I00
tp2249
(g7
I00
tp2250
(g9
I00
tp2251
tp2252
I3
tp2253
I102
s(((g3
I00
tp2254
(g5
I00
tp2255
(g21
I00
tp2256
(g7
I00
tp2257
(g11
I00
tp2258
(g36
I01
tp2259
tp2260
I5
tp2261
I99
s(((g1
I00
tp2262
(g16
I00
tp2263
(g5
I00
tp2264
(g47
I00
tp2265
(g21
I00
tp2266
(g18
I01
tp2267
tp2268
I5
tp2269
I132
s(((g3
I00
tp2270
(g36
I00
tp2271
(g21
I00
tp2272
(g7
I00
tp2273
(g9
I00
tp2274
(g11
I00
tp2275
tp2276
I5
tp2277
I102
s(((g1
I00
tp2278
(g18
I00
tp2279
(g3
I00
tp2280
(g5
I00
tp2281
(g9
I00
tp2282
(g21
I01
tp2283
tp2284
I5
tp2285
I44
s(((g3
I00
tp2286
(g47
I00
tp2287
(g7
I00
tp2288
(g9
I00
tp2289
(g11
I00
tp2290
(g21
I01
tp2291
tp2292
I5
tp2293
I15
s(((g16
I00
tp2294
(g36
I00
tp2295
(g21
I00
tp2296
(g7
I00
tp2297
(g9
I00
tp2298
(g11
I00
tp2299
tp2300
I5
tp2301
I680
s(((g18
I00
tp2302
(g47
I00
tp2303
(g7
I00
tp2304
(g9
I00
tp2305
(g39
I01
tp2306
(g3
I01
tp2307
tp2308
I5
tp2309
I90
s(((g1
I00
tp2310
(g5
I00
tp2311
(g21
I00
tp2312
(g9
I00
tp2313
(g11
I00
tp2314
(g3
I01
tp2315
tp2316
I5
tp2317
I50
s(((g16
I00
tp2318
(g47
I00
tp2319
(g21
I00
tp2320
(g7
I00
tp2321
(g9
I00
tp2322
(g3
I01
tp2323
tp2324
I5
tp2325
I105
s(((g16
I00
tp2326
(g3
I00
tp2327
(g18
I00
tp2328
(g5
I00
tp2329
(g21
I00
tp2330
(g9
I00
tp2331
tp2332
I5
tp2333
I34
s(((g36
I00
tp2334
(g21
I00
tp2335
(g9
I00
tp2336
(g11
I00
tp2337
(g1
I01
tp2338
(g47
I01
tp2339
tp2340
I5
tp2341
I132
s(((g1
I00
tp2342
(g36
I00
tp2343
(g5
I00
tp2344
(g21
I00
tp2345
(g7
I00
tp2346
(g9
I00
tp2347
tp2348
I5
tp2349
I143
s(((g18
I00
tp2350
(g36
I00
tp2351
(g5
I00
tp2352
(g47
I00
tp2353
(g7
I00
tp2354
(g9
I00
tp2355
tp2356
I5
tp2357
I174
s(((g36
I00
tp2358
(g47
I00
tp2359
(g7
I00
tp2360
(g9
I00
tp2361
(g11
I00
tp2362
(g21
I01
tp2363
tp2364
I5
tp2365
I2
s(((g1
I00
tp2366
(g16
I00
tp2367
(g18
I00
tp2368
(g5
I00
tp2369
(g21
I00
tp2370
(g9
I00
tp2371
tp2372
I5
tp2373
I102
s(((g16
I00
tp2374
(g36
I00
tp2375
(g54
I00
tp2376
(g18
I00
tp2377
(g5
I00
tp2378
(g7
I00
tp2379
tp2380
I5
tp2381
I340
s(((g36
I00
tp2382
(g5
I00
tp2383
(g7
I00
tp2384
(g9
I00
tp2385
(g11
I00
tp2386
(g54
I01
tp2387
tp2388
I5
tp2389
I132
s(((g1
I00
tp2390
(g16
I00
tp2391
(g36
I00
tp2392
(g5
I00
tp2393
(g39
I00
tp2394
(g21
I00
tp2395
tp2396
I4
tp2397
I102
s(((g16
I00
tp2398
(g54
I00
tp2399
(g18
I00
tp2400
(g5
I00
tp2401
(g7
I00
tp2402
(g9
I00
tp2403
tp2404
I5
tp2405
I859
s(((g1
I00
tp2406
(g16
I00
tp2407
(g36
I00
tp2408
(g54
I00
tp2409
(g5
I00
tp2410
(g18
I01
tp2411
tp2412
I5
tp2413
I33
s(((g16
I00
tp2414
(g54
I00
tp2415
(g18
I00
tp2416
(g21
I00
tp2417
(g7
I00
tp2418
(g9
I00
tp2419
tp2420
I5
tp2421
I102
s(((g1
I00
tp2422
(g16
I00
tp2423
(g36
I00
tp2424
(g5
I00
tp2425
(g39
I00
tp2426
(g21
I01
tp2427
tp2428
I5
tp2429
I102
s(((g1
I00
tp2430
(g16
I00
tp2431
(g3
I00
tp2432
(g5
I00
tp2433
(g21
I00
tp2434
(g11
I00
tp2435
tp2436
I3
tp2437
I68
s(((g18
I00
tp2438
(g36
I00
tp2439
(g16
I00
tp2440
(g5
I00
tp2441
(g39
I00
tp2442
(g21
I00
tp2443
tp2444
I4
tp2445
I7
s(((g39
I00
tp2446
(g3
I00
tp2447
(g47
I00
tp2448
(g7
I00
tp2449
(g9
I00
tp2450
(g16
I01
tp2451
tp2452
I5
tp2453
I8
s(((g1
I00
tp2454
(g18
I00
tp2455
(g16
I00
tp2456
(g7
I00
tp2457
(g9
I00
tp2458
(g39
I01
tp2459
tp2460
I5
tp2461
I153
s(((g1
I00
tp2462
(g18
I00
tp2463
(g36
I00
tp2464
(g5
I00
tp2465
(g47
I00
tp2466
(g21
I00
tp2467
tp2468
I5
tp2469
I34
s(((g1
I00
tp2470
(g3
I00
tp2471
(g54
I00
tp2472
(g5
I00
tp2473
(g7
I00
tp2474
(g11
I00
tp2475
tp2476
I5
tp2477
I102
s(((g18
I00
tp2478
(g39
I00
tp2479
(g21
I00
tp2480
(g11
I00
tp2481
(g36
I01
tp2482
(g5
I01
tp2483
tp2484
I5
tp2485
I5
s(((g1
I00
tp2486
(g36
I00
tp2487
(g3
I00
tp2488
(g7
I00
tp2489
(g9
I00
tp2490
(g11
I00
tp2491
tp2492
I5
tp2493
I68
s(((g36
I00
tp2494
(g16
I00
tp2495
(g5
I00
tp2496
(g39
I00
tp2497
(g18
I01
tp2498
(g21
I01
tp2499
tp2500
I5
tp2501
I102
s(((g54
I00
tp2502
(g5
I00
tp2503
(g21
I00
tp2504
(g7
I00
tp2505
(g9
I00
tp2506
(g11
I00
tp2507
tp2508
I5
tp2509
I102
s(((g16
I00
tp2510
(g3
I00
tp2511
(g5
I00
tp2512
(g39
I00
tp2513
(g21
I00
tp2514
(g7
I00
tp2515
tp2516
I5
tp2517
I34
s(((g5
I00
tp2518
(g21
I00
tp2519
(g11
I00
tp2520
(g1
I01
tp2521
(g7
I01
tp2522
(g9
I01
tp2523
tp2524
I3
tp2525
I297
s(((g1
I00
tp2526
(g39
I00
tp2527
(g36
I00
tp2528
(g47
I00
tp2529
(g9
I00
tp2530
(g11
I00
tp2531
tp2532
I5
tp2533
I274
s(((g1
I00
tp2534
(g3
I00
tp2535
(g21
I00
tp2536
(g9
I00
tp2537
(g16
I01
tp2538
(g18
I01
tp2539
tp2540
I5
tp2541
I28
s(((g1
I00
tp2542
(g39
I00
tp2543
(g3
I00
tp2544
(g47
I00
tp2545
(g21
I00
tp2546
(g11
I00
tp2547
tp2548
I5
tp2549
I102
s(((g1
I00
tp2550
(g16
I00
tp2551
(g47
I00
tp2552
(g21
I00
tp2553
(g9
I00
tp2554
(g3
I01
tp2555
tp2556
I5
tp2557
I14
s(((g1
I00
tp2558
(g18
I00
tp2559
(g36
I00
tp2560
(g21
I00
tp2561
(g11
I00
tp2562
(g5
I01
tp2563
tp2564
I5
tp2565
I14
s(((g54
I00
tp2566
(g5
I00
tp2567
(g9
I00
tp2568
(g11
I00
tp2569
(g1
I01
tp2570
(g7
I01
tp2571
tp2572
I5
tp2573
I256
s(((g36
I00
tp2574
(g5
I00
tp2575
(g21
I00
tp2576
(g1
I01
tp2577
(g7
I01
tp2578
(g9
I01
tp2579
tp2580
I5
tp2581
I224
s(((g1
I00
tp2582
(g16
I00
tp2583
(g36
I00
tp2584
(g18
I00
tp2585
(g5
I00
tp2586
(g21
I00
tp2587
tp2588
I5
tp2589
I102
s(((g1
I00
tp2590
(g16
I00
tp2591
(g36
I00
tp2592
(g54
I00
tp2593
(g18
I00
tp2594
(g9
I00
tp2595
tp2596
I5
tp2597
I34
s(((g1
I00
tp2598
(g16
I00
tp2599
(g5
I00
tp2600
(g7
I00
tp2601
(g9
I00
tp2602
(g3
I01
tp2603
tp2604
I5
tp2605
I39
s(((g1
I00
tp2606
(g16
I00
tp2607
(g3
I00
tp2608
(g47
I00
tp2609
(g21
I00
tp2610
(g11
I00
tp2611
tp2612
I5
tp2613
I102
s(((g16
I00
tp2614
(g18
I00
tp2615
(g5
I00
tp2616
(g7
I00
tp2617
(g9
I00
tp2618
(g54
I01
tp2619
tp2620
I5
tp2621
I165
s(((g1
I00
tp2622
(g16
I00
tp2623
(g3
I00
tp2624
(g5
I00
tp2625
(g21
I00
tp2626
(g18
I01
tp2627
tp2628
I4
tp2629
I99
s(((g1
I00
tp2630
(g16
I00
tp2631
(g3
I00
tp2632
(g5
I00
tp2633
(g21
I00
tp2634
(g11
I00
tp2635
tp2636
I4
tp2637
I102
s(((g1
I00
tp2638
(g16
I00
tp2639
(g3
I00
tp2640
(g36
I00
tp2641
(g5
I00
tp2642
(g21
I00
tp2643
tp2644
I5
tp2645
I34
s(((g16
I00
tp2646
(g36
I00
tp2647
(g54
I00
tp2648
(g7
I00
tp2649
(g9
I00
tp2650
(g11
I00
tp2651
tp2652
I5
tp2653
I150
s(((g1
I00
tp2654
(g3
I00
tp2655
(g5
I00
tp2656
(g39
I00
tp2657
(g16
I01
tp2658
(g21
I01
tp2659
tp2660
I5
tp2661
I102
s(((g18
I00
tp2662
(g36
I00
tp2663
(g5
I00
tp2664
(g47
I00
tp2665
(g7
I00
tp2666
(g21
I01
tp2667
tp2668
I5
tp2669
I6
s(((g16
I00
tp2670
(g39
I00
tp2671
(g3
I00
tp2672
(g47
I00
tp2673
(g7
I00
tp2674
(g9
I00
tp2675
tp2676
I5
tp2677
I9
s(((g18
I00
tp2678
(g47
I00
tp2679
(g21
I00
tp2680
(g7
I00
tp2681
(g9
I00
tp2682
(g11
I00
tp2683
tp2684
I5
tp2685
I68
s(((g36
I00
tp2686
(g3
I00
tp2687
(g21
I00
tp2688
(g7
I00
tp2689
(g9
I00
tp2690
(g11
I00
tp2691
tp2692
I3
tp2693
I68
s(((g36
I00
tp2694
(g5
I00
tp2695
(g47
I00
tp2696
(g21
I00
tp2697
(g9
I00
tp2698
(g18
I01
tp2699
tp2700
I5
tp2701
I132
s(((g18
I00
tp2702
(g36
I00
tp2703
(g47
I00
tp2704
(g21
I00
tp2705
(g7
I00
tp2706
(g9
I00
tp2707
tp2708
I5
tp2709
I274
s(((g1
I00
tp2710
(g36
I00
tp2711
(g47
I00
tp2712
(g21
I00
tp2713
(g9
I00
tp2714
(g11
I00
tp2715
tp2716
I5
tp2717
I170
s(((g18
I00
tp2718
(g21
I00
tp2719
(g11
I00
tp2720
(g36
I01
tp2721
(g5
I01
tp2722
(g39
I01
tp2723
tp2724
I5
tp2725
I5
s(((g16
I00
tp2726
(g47
I00
tp2727
(g21
I00
tp2728
(g9
I00
tp2729
(g11
I00
tp2730
(g1
I01
tp2731
tp2732
I5
tp2733
I1
s(((g18
I00
tp2734
(g36
I00
tp2735
(g7
I00
tp2736
(g9
I00
tp2737
(g11
I00
tp2738
(g54
I01
tp2739
tp2740
I5
tp2741
I68
s(((g36
I00
tp2742
(g5
I00
tp2743
(g47
I00
tp2744
(g7
I00
tp2745
(g11
I00
tp2746
(g21
I01
tp2747
tp2748
I5
tp2749
I60
s(((g1
I00
tp2750
(g16
I00
tp2751
(g21
I00
tp2752
(g7
I00
tp2753
(g9
I00
tp2754
(g11
I00
tp2755
tp2756
I5
tp2757
I102
s(((g18
I00
tp2758
(g36
I00
tp2759
(g5
I00
tp2760
(g21
I00
tp2761
(g7
I00
tp2762
(g9
I00
tp2763
tp2764
I4
tp2765
I136
s(((g3
I00
tp2766
(g36
I00
tp2767
(g5
I00
tp2768
(g21
I00
tp2769
(g7
I00
tp2770
(g9
I00
tp2771
tp2772
I5
tp2773
I340
s(((g16
I00
tp2774
(g18
I00
tp2775
(g7
I00
tp2776
(g9
I00
tp2777
(g54
I01
tp2778
(g11
I01
tp2779
tp2780
I5
tp2781
I128
s(((g1
I00
tp2782
(g3
I00
tp2783
(g5
I00
tp2784
(g7
I00
tp2785
(g11
I00
tp2786
(g54
I01
tp2787
tp2788
I5
tp2789
I102
s(((g18
I00
tp2790
(g36
I00
tp2791
(g54
I00
tp2792
(g7
I00
tp2793
(g9
I00
tp2794
(g11
I00
tp2795
tp2796
I5
tp2797
I68
s(((g1
I00
tp2798
(g3
I00
tp2799
(g5
I00
tp2800
(g7
I00
tp2801
(g9
I00
tp2802
(g16
I01
tp2803
tp2804
I5
tp2805
I21
s(((g1
I00
tp2806
(g18
I00
tp2807
(g47
I00
tp2808
(g16
I00
tp2809
(g39
I00
tp2810
(g21
I00
tp2811
tp2812
I5
tp2813
I68
s(((g1
I00
tp2814
(g16
I00
tp2815
(g5
I00
tp2816
(g7
I00
tp2817
(g9
I00
tp2818
(g54
I01
tp2819
tp2820
I5
tp2821
I132
s(((g1
I00
tp2822
(g16
I00
tp2823
(g36
I00
tp2824
(g5
I00
tp2825
(g21
I00
tp2826
(g18
I01
tp2827
tp2828
I4
tp2829
I99
s(((g1
I00
tp2830
(g16
I00
tp2831
(g18
I00
tp2832
(g21
I00
tp2833
(g7
I00
tp2834
(g9
I00
tp2835
tp2836
I4
tp2837
I94
s(((g1
I00
tp2838
(g16
I00
tp2839
(g36
I00
tp2840
(g18
I00
tp2841
(g21
I00
tp2842
(g9
I00
tp2843
tp2844
I5
tp2845
I255
s(((g1
I00
tp2846
(g3
I00
tp2847
(g5
I00
tp2848
(g9
I00
tp2849
(g16
I01
tp2850
(g21
I01
tp2851
tp2852
I5
tp2853
I80
s(((g1
I00
tp2854
(g16
I00
tp2855
(g3
I00
tp2856
(g39
I00
tp2857
(g21
I00
tp2858
(g11
I00
tp2859
tp2860
I4
tp2861
I102
s(((g18
I00
tp2862
(g39
I00
tp2863
(g21
I00
tp2864
(g9
I00
tp2865
(g11
I00
tp2866
(g1
I01
tp2867
tp2868
I5
tp2869
I12
s(((g16
I00
tp2870
(g18
I00
tp2871
(g5
I00
tp2872
(g21
I00
tp2873
(g7
I00
tp2874
(g9
I00
tp2875
tp2876
I5
tp2877
I136
s(((g16
I00
tp2878
(g36
I00
tp2879
(g18
I00
tp2880
(g5
I00
tp2881
(g21
I00
tp2882
(g9
I00
tp2883
tp2884
I5
tp2885
I102
s(((g1
I00
tp2886
(g3
I00
tp2887
(g5
I00
tp2888
(g21
I00
tp2889
(g9
I00
tp2890
(g16
I01
tp2891
tp2892
I5
tp2893
I80
s(((g18
I00
tp2894
(g3
I00
tp2895
(g54
I00
tp2896
(g7
I00
tp2897
(g9
I00
tp2898
(g11
I00
tp2899
tp2900
I5
tp2901
I4
s(((g1
I00
tp2902
(g54
I00
tp2903
(g5
I00
tp2904
(g7
I00
tp2905
(g9
I00
tp2906
(g11
I00
tp2907
tp2908
I5
tp2909
I20
s(((g18
I00
tp2910
(g36
I00
tp2911
(g5
I00
tp2912
(g21
I00
tp2913
(g7
I00
tp2914
(g11
I00
tp2915
tp2916
I4
tp2917
I68
s(((g3
I00
tp2918
(g5
I00
tp2919
(g21
I00
tp2920
(g7
I00
tp2921
(g9
I00
tp2922
(g11
I00
tp2923
tp2924
I4
tp2925
I176
s(((g16
I00
tp2926
(g36
I00
tp2927
(g18
I00
tp2928
(g5
I00
tp2929
(g7
I00
tp2930
(g9
I00
tp2931
tp2932
I5
tp2933
I515
s(((g3
I00
tp2934
(g54
I00
tp2935
(g5
I00
tp2936
(g7
I00
tp2937
(g11
I00
tp2938
(g1
I01
tp2939
tp2940
I5
tp2941
I68
s(((g1
I00
tp2942
(g18
I00
tp2943
(g36
I00
tp2944
(g5
I00
tp2945
(g7
I00
tp2946
(g9
I00
tp2947
tp2948
I5
tp2949
I159
s(((g1
I00
tp2950
(g3
I00
tp2951
(g47
I00
tp2952
(g7
I00
tp2953
(g9
I00
tp2954
(g16
I01
tp2955
tp2956
I5
tp2957
I193
s(((g36
I00
tp2958
(g54
I00
tp2959
(g5
I00
tp2960
(g1
I01
tp2961
(g7
I01
tp2962
(g9
I01
tp2963
tp2964
I5
tp2965
I96
s(((g18
I00
tp2966
(g54
I00
tp2967
(g21
I00
tp2968
(g7
I00
tp2969
(g9
I00
tp2970
(g11
I00
tp2971
tp2972
I5
tp2973
I238
s(((g1
I00
tp2974
(g16
I00
tp2975
(g18
I00
tp2976
(g5
I00
tp2977
(g21
I00
tp2978
(g7
I00
tp2979
tp2980
I5
tp2981
I17
s(((g16
I00
tp2982
(g18
I00
tp2983
(g7
I00
tp2984
(g9
I00
tp2985
(g11
I00
tp2986
(g54
I01
tp2987
tp2988
I5
tp2989
I4
s(((g1
I00
tp2990
(g16
I00
tp2991
(g3
I00
tp2992
(g5
I00
tp2993
(g21
I00
tp2994
(g11
I01
tp2995
tp2996
I5
tp2997
I68
s(((g3
I00
tp2998
(g5
I00
tp2999
(g7
I00
tp3000
(g9
I00
tp3001
(g16
I01
tp3002
(g21
I01
tp3003
tp3004
I5
tp3005
I8
s(((g1
I00
tp3006
(g16
I00
tp3007
(g3
I00
tp3008
(g47
I00
tp3009
(g7
I00
tp3010
(g9
I00
tp3011
tp3012
I5
tp3013
I756
s(((g16
I00
tp3014
(g3
I00
tp3015
(g36
I00
tp3016
(g5
I00
tp3017
(g21
I00
tp3018
(g9
I00
tp3019
tp3020
I5
tp3021
I34
s(((g16
I00
tp3022
(g36
I00
tp3023
(g54
I00
tp3024
(g18
I00
tp3025
(g7
I00
tp3026
(g9
I00
tp3027
tp3028
I5
tp3029
I582
s(((g1
I00
tp3030
(g16
I00
tp3031
(g47
I00
tp3032
(g21
I00
tp3033
(g9
I00
tp3034
(g11
I00
tp3035
tp3036
I3
tp3037
I102
s(((g3
I00
tp3038
(g47
I00
tp3039
(g7
I00
tp3040
(g9
I00
tp3041
(g11
I00
tp3042
(g54
I01
tp3043
tp3044
I5
tp3045
I17
s(((g16
I00
tp3046
(g36
I00
tp3047
(g54
I00
tp3048
(g5
I00
tp3049
(g7
I00
tp3050
(g9
I00
tp3051
tp3052
I5
tp3053
I1290
s(((g1
I00
tp3054
(g3
I00
tp3055
(g5
I00
tp3056
(g21
I00
tp3057
(g11
I00
tp3058
(g9
I01
tp3059
tp3060
I5
tp3061
I50
s(((g16
I00
tp3062
(g36
I00
tp3063
(g5
I00
tp3064
(g21
I00
tp3065
(g9
I00
tp3066
(g11
I00
tp3067
tp3068
I5
tp3069
I34
s(((g1
I00
tp3070
(g3
I00
tp3071
(g5
I00
tp3072
(g47
I00
tp3073
(g21
I00
tp3074
(g11
I00
tp3075
tp3076
I4
tp3077
I102
s(((g16
I00
tp3078
(g47
I00
tp3079
(g7
I00
tp3080
(g9
I00
tp3081
(g39
I01
tp3082
(g3
I01
tp3083
tp3084
I5
tp3085
I9
s(((g1
I00
tp3086
(g18
I00
tp3087
(g54
I00
tp3088
(g5
I00
tp3089
(g47
I00
tp3090
(g9
I00
tp3091
tp3092
I5
tp3093
I34
s(((g1
I00
tp3094
(g18
I00
tp3095
(g3
I00
tp3096
(g5
I00
tp3097
(g39
I00
tp3098
(g21
I00
tp3099
tp3100
I4
tp3101
I7
s(((g18
I00
tp3102
(g3
I00
tp3103
(g5
I00
tp3104
(g7
I00
tp3105
(g9
I00
tp3106
(g21
I01
tp3107
tp3108
I5
tp3109
I22
s(((g18
I00
tp3110
(g3
I00
tp3111
(g5
I00
tp3112
(g21
I00
tp3113
(g7
I00
tp3114
(g11
I00
tp3115
tp3116
I5
tp3117
I102
s(((g1
I00
tp3118
(g3
I00
tp3119
(g47
I00
tp3120
(g21
I00
tp3121
(g9
I00
tp3122
(g11
I00
tp3123
tp3124
I5
tp3125
I340
s(((g16
I00
tp3126
(g21
I00
tp3127
(g9
I00
tp3128
(g11
I00
tp3129
(g1
I01
tp3130
(g7
I01
tp3131
tp3132
I4
tp3133
I15
s(((g36
I00
tp3134
(g47
I00
tp3135
(g21
I00
tp3136
(g7
I00
tp3137
(g11
I00
tp3138
(g5
I01
tp3139
tp3140
I5
tp3141
I50
s(((g16
I00
tp3142
(g54
I00
tp3143
(g21
I00
tp3144
(g7
I00
tp3145
(g9
I00
tp3146
(g11
I00
tp3147
tp3148
I5
tp3149
I34
s(((g16
I00
tp3150
(g3
I00
tp3151
(g36
I00
tp3152
(g5
I00
tp3153
(g21
I00
tp3154
(g18
I01
tp3155
tp3156
I4
tp3157
I66
s(((g39
I00
tp3158
(g3
I00
tp3159
(g5
I00
tp3160
(g47
I00
tp3161
(g7
I00
tp3162
(g11
I00
tp3163
tp3164
I5
tp3165
I34
s(((g1
I00
tp3166
(g39
I00
tp3167
(g36
I00
tp3168
(g47
I00
tp3169
(g21
I00
tp3170
(g11
I00
tp3171
tp3172
I5
tp3173
I34
s(((g1
I00
tp3174
(g3
I00
tp3175
(g47
I00
tp3176
(g7
I00
tp3177
(g9
I00
tp3178
(g11
I00
tp3179
tp3180
I4
tp3181
I710
s(((g1
I00
tp3182
(g16
I00
tp3183
(g3
I00
tp3184
(g18
I00
tp3185
(g5
I00
tp3186
(g21
I00
tp3187
tp3188
I5
tp3189
I102
s(((g1
I00
tp3190
(g18
I00
tp3191
(g5
I00
tp3192
(g7
I00
tp3193
(g9
I00
tp3194
(g11
I00
tp3195
tp3196
I5
tp3197
I102
s(((g16
I00
tp3198
(g3
I00
tp3199
(g5
I00
tp3200
(g21
I00
tp3201
(g7
I00
tp3202
(g1
I01
tp3203
tp3204
I5
tp3205
I17
s(((g18
I00
tp3206
(g36
I00
tp3207
(g54
I00
tp3208
(g5
I00
tp3209
(g7
I00
tp3210
(g9
I00
tp3211
tp3212
I5
tp3213
I178
s(((g1
I00
tp3214
(g18
I00
tp3215
(g47
I00
tp3216
(g21
I00
tp3217
(g9
I00
tp3218
(g11
I00
tp3219
tp3220
I5
tp3221
I102
s(((g1
I00
tp3222
(g16
I00
tp3223
(g5
I00
tp3224
(g21
I00
tp3225
(g9
I00
tp3226
(g3
I01
tp3227
tp3228
I5
tp3229
I90
s(((g18
I00
tp3230
(g3
I00
tp3231
(g54
I00
tp3232
(g5
I00
tp3233
(g7
I00
tp3234
(g11
I00
tp3235
tp3236
I5
tp3237
I68
s(((g1
I00
tp3238
(g36
I00
tp3239
(g5
I00
tp3240
(g7
I00
tp3241
(g9
I00
tp3242
(g18
I01
tp3243
tp3244
I5
tp3245
I132
s(((g16
I00
tp3246
(g3
I00
tp3247
(g5
I00
tp3248
(g21
I00
tp3249
(g7
I00
tp3250
(g47
I01
tp3251
tp3252
I5
tp3253
I51
s(((g1
I00
tp3254
(g16
I00
tp3255
(g3
I00
tp3256
(g5
I00
tp3257
(g39
I00
tp3258
(g21
I00
tp3259
tp3260
I4
tp3261
I6
s(((g18
I00
tp3262
(g36
I00
tp3263
(g47
I00
tp3264
(g21
I00
tp3265
(g7
I00
tp3266
(g16
I01
tp3267
tp3268
I5
tp3269
I25
s(((g18
I00
tp3270
(g39
I00
tp3271
(g36
I01
tp3272
(g5
I01
tp3273
(g21
I01
tp3274
(g11
I01
tp3275
tp3276
I5
tp3277
I5
s(((g1
I00
tp3278
(g3
I00
tp3279
(g9
I00
tp3280
(g11
I00
tp3281
(g16
I01
tp3282
(g21
I01
tp3283
tp3284
I5
tp3285
I24
s(((g1
I00
tp3286
(g18
I00
tp3287
(g16
I00
tp3288
(g39
I00
tp3289
(g21
I00
tp3290
(g9
I00
tp3291
tp3292
I5
tp3293
I120
s(((g5
I00
tp3294
(g21
I00
tp3295
(g7
I00
tp3296
(g9
I00
tp3297
(g11
I00
tp3298
(g3
I01
tp3299
tp3300
I5
tp3301
I166
s(((g1
I00
tp3302
(g18
I00
tp3303
(g36
I00
tp3304
(g21
I00
tp3305
(g9
I00
tp3306
(g11
I00
tp3307
tp3308
I5
tp3309
I306
s(((g18
I00
tp3310
(g36
I00
tp3311
(g5
I00
tp3312
(g7
I00
tp3313
(g9
I00
tp3314
(g54
I01
tp3315
tp3316
I5
tp3317
I132
s(((g16
I00
tp3318
(g54
I00
tp3319
(g7
I00
tp3320
(g9
I00
tp3321
(g36
I01
tp3322
(g5
I01
tp3323
tp3324
I5
tp3325
I114
s(((g1
I00
tp3326
(g18
I00
tp3327
(g47
I00
tp3328
(g21
I00
tp3329
(g9
I00
tp3330
(g39
I01
tp3331
tp3332
I5
tp3333
I51
s(((g18
I00
tp3334
(g5
I00
tp3335
(g47
I00
tp3336
(g21
I00
tp3337
(g7
I00
tp3338
(g11
I00
tp3339
tp3340
I5
tp3341
I34
s(((g3
I00
tp3342
(g36
I00
tp3343
(g5
I00
tp3344
(g7
I00
tp3345
(g11
I00
tp3346
(g21
I01
tp3347
tp3348
I5
tp3349
I99
s(((g18
I00
tp3350
(g54
I00
tp3351
(g5
I00
tp3352
(g7
I00
tp3353
(g9
I00
tp3354
(g11
I00
tp3355
tp3356
I5
tp3357
I24
s(((g1
I00
tp3358
(g18
I00
tp3359
(g47
I00
tp3360
(g21
I00
tp3361
(g9
I00
tp3362
(g11
I00
tp3363
tp3364
I2
tp3365
I2
s(((g18
I00
tp3366
(g16
I00
tp3367
(g39
I00
tp3368
(g7
I00
tp3369
(g9
I00
tp3370
(g3
I01
tp3371
tp3372
I5
tp3373
I7
s(((g1
I00
tp3374
(g36
I00
tp3375
(g5
I00
tp3376
(g7
I00
tp3377
(g9
I00
tp3378
(g11
I00
tp3379
tp3380
I5
tp3381
I277
s(((g1
I00
tp3382
(g36
I00
tp3383
(g3
I00
tp3384
(g5
I00
tp3385
(g7
I00
tp3386
(g11
I00
tp3387
tp3388
I5
tp3389
I340
s(((g1
I00
tp3390
(g18
I00
tp3391
(g16
I00
tp3392
(g39
I00
tp3393
(g9
I00
tp3394
(g21
I01
tp3395
tp3396
I5
tp3397
I110
s(((g16
I00
tp3398
(g18
I00
tp3399
(g21
I00
tp3400
(g7
I00
tp3401
(g9
I00
tp3402
(g1
I01
tp3403
tp3404
I5
tp3405
I77
s(((g3
I00
tp3406
(g5
I00
tp3407
(g21
I00
tp3408
(g7
I00
tp3409
(g9
I00
tp3410
(g16
I01
tp3411
tp3412
I5
tp3413
I8
s(((g16
I00
tp3414
(g54
I00
tp3415
(g5
I00
tp3416
(g21
I00
tp3417
(g7
I00
tp3418
(g9
I00
tp3419
tp3420
I4
tp3421
I238
s(((g36
I00
tp3422
(g5
I00
tp3423
(g47
I00
tp3424
(g21
I00
tp3425
(g7
I00
tp3426
(g11
I00
tp3427
tp3428
I5
tp3429
I170
s(((g18
I00
tp3430
(g36
I00
tp3431
(g5
I00
tp3432
(g47
I00
tp3433
(g21
I00
tp3434
(g9
I00
tp3435
tp3436
I5
tp3437
I89
s(((g39
I00
tp3438
(g3
I00
tp3439
(g47
I00
tp3440
(g7
I00
tp3441
(g9
I00
tp3442
(g11
I00
tp3443
tp3444
I5
tp3445
I680
s(((g1
I00
tp3446
(g3
I00
tp3447
(g5
I00
tp3448
(g39
I00
tp3449
(g21
I00
tp3450
(g11
I01
tp3451
tp3452
I5
tp3453
I16
s(((g18
I00
tp3454
(g3
I00
tp3455
(g16
I00
tp3456
(g39
I00
tp3457
(g7
I00
tp3458
(g9
I00
tp3459
tp3460
I5
tp3461
I7
s(((g16
I00
tp3462
(g21
I00
tp3463
(g9
I00
tp3464
(g11
I00
tp3465
(g1
I01
tp3466
(g47
I01
tp3467
tp3468
I5
tp3469
I32
s(((g3
I00
tp3470
(g5
I00
tp3471
(g39
I00
tp3472
(g7
I00
tp3473
(g9
I00
tp3474
(g11
I00
tp3475
tp3476
I5
tp3477
I34
s(((g1
I00
tp3478
(g16
I00
tp3479
(g47
I00
tp3480
(g21
I00
tp3481
(g9
I00
tp3482
(g11
I00
tp3483
tp3484
I4
tp3485
I102
s(((g1
I00
tp3486
(g3
I00
tp3487
(g5
I00
tp3488
(g21
I00
tp3489
(g7
I00
tp3490
(g11
I00
tp3491
tp3492
I4
tp3493
I187
s(((g36
I00
tp3494
(g5
I00
tp3495
(g47
I00
tp3496
(g7
I00
tp3497
(g9
I00
tp3498
(g18
I01
tp3499
tp3500
I5
tp3501
I132
s(((g16
I00
tp3502
(g36
I00
tp3503
(g18
I00
tp3504
(g5
I00
tp3505
(g21
I00
tp3506
(g7
I00
tp3507
tp3508
I4
tp3509
I316
s(((g1
I00
tp3510
(g16
I00
tp3511
(g18
I00
tp3512
(g5
I00
tp3513
(g7
I00
tp3514
(g36
I01
tp3515
tp3516
I5
tp3517
I70
s(((g1
I00
tp3518
(g3
I00
tp3519
(g5
I00
tp3520
(g47
I00
tp3521
(g21
I00
tp3522
(g11
I00
tp3523
tp3524
I3
tp3525
I136
s(((g16
I00
tp3526
(g36
I00
tp3527
(g18
I00
tp3528
(g21
I00
tp3529
(g7
I00
tp3530
(g11
I00
tp3531
tp3532
I5
tp3533
I24
s(((g39
I00
tp3534
(g36
I00
tp3535
(g9
I00
tp3536
(g11
I00
tp3537
(g1
I01
tp3538
(g47
I01
tp3539
tp3540
I5
tp3541
I66
s(((g18
I00
tp3542
(g54
I00
tp3543
(g21
I00
tp3544
(g7
I00
tp3545
(g9
I00
tp3546
(g11
I00
tp3547
tp3548
I3
tp3549
I136
s(((g18
I00
tp3550
(g5
I00
tp3551
(g21
I00
tp3552
(g7
I00
tp3553
(g11
I00
tp3554
(g36
I01
tp3555
tp3556
I5
tp3557
I56
s(((g1
I00
tp3558
(g18
I00
tp3559
(g16
I00
tp3560
(g5
I00
tp3561
(g39
I00
tp3562
(g21
I00
tp3563
tp3564
I5
tp3565
I340
s(((g36
I00
tp3566
(g5
I00
tp3567
(g47
I00
tp3568
(g21
I00
tp3569
(g7
I00
tp3570
(g16
I01
tp3571
tp3572
I5
tp3573
I40
s(((g18
I00
tp3574
(g3
I00
tp3575
(g5
I00
tp3576
(g7
I00
tp3577
(g11
I00
tp3578
(g54
I01
tp3579
tp3580
I5
tp3581
I68
s(((g1
I00
tp3582
(g18
I00
tp3583
(g21
I00
tp3584
(g7
I00
tp3585
(g9
I00
tp3586
(g11
I00
tp3587
tp3588
I4
tp3589
I34
s(((g18
I00
tp3590
(g3
I00
tp3591
(g21
I00
tp3592
(g7
I00
tp3593
(g9
I00
tp3594
(g11
I00
tp3595
tp3596
I4
tp3597
I99
s(((g1
I00
tp3598
(g3
I00
tp3599
(g39
I00
tp3600
(g21
I00
tp3601
(g11
I00
tp3602
(g5
I01
tp3603
tp3604
I5
tp3605
I16
s(((g1
I00
tp3606
(g16
I00
tp3607
(g36
I00
tp3608
(g54
I00
tp3609
(g18
I00
tp3610
(g5
I00
tp3611
tp3612
I5
tp3613
I1
s(((g1
I00
tp3614
(g16
I00
tp3615
(g39
I00
tp3616
(g21
I00
tp3617
(g9
I00
tp3618
(g11
I00
tp3619
tp3620
I5
tp3621
I68
s(((g16
I00
tp3622
(g18
I00
tp3623
(g5
I00
tp3624
(g21
I00
tp3625
(g7
I00
tp3626
(g1
I01
tp3627
tp3628
I5
tp3629
I17
s(((g1
I00
tp3630
(g18
I00
tp3631
(g7
I00
tp3632
(g9
I00
tp3633
(g11
I00
tp3634
(g54
I01
tp3635
tp3636
I5
tp3637
I102
s(((g3
I00
tp3638
(g36
I00
tp3639
(g5
I00
tp3640
(g21
I00
tp3641
(g7
I00
tp3642
(g11
I00
tp3643
tp3644
I5
tp3645
I108
s(((g1
I00
tp3646
(g3
I00
tp3647
(g36
I00
tp3648
(g5
I00
tp3649
(g7
I00
tp3650
(g9
I00
tp3651
tp3652
I5
tp3653
I102
s(((g1
I00
tp3654
(g47
I00
tp3655
(g7
I00
tp3656
(g9
I00
tp3657
(g11
I00
tp3658
(g3
I01
tp3659
tp3660
I5
tp3661
I174
s(((g18
I00
tp3662
(g5
I00
tp3663
(g47
I00
tp3664
(g21
I00
tp3665
(g7
I00
tp3666
(g9
I00
tp3667
tp3668
I5
tp3669
I34
s(((g1
I00
tp3670
(g18
I00
tp3671
(g39
I00
tp3672
(g9
I00
tp3673
(g11
I00
tp3674
(g21
I01
tp3675
tp3676
I5
tp3677
I10
s(((g1
I00
tp3678
(g16
I00
tp3679
(g36
I00
tp3680
(g5
I00
tp3681
(g7
I00
tp3682
(g11
I00
tp3683
tp3684
I5
tp3685
I34
s(((g16
I00
tp3686
(g21
I00
tp3687
(g11
I00
tp3688
(g1
I01
tp3689
(g7
I01
tp3690
(g9
I01
tp3691
tp3692
I4
tp3693
I217
s(((g16
I00
tp3694
(g36
I00
tp3695
(g21
I00
tp3696
(g7
I00
tp3697
(g11
I00
tp3698
(g18
I01
tp3699
tp3700
I5
tp3701
I18
s(((g1
I00
tp3702
(g16
I00
tp3703
(g21
I00
tp3704
(g9
I00
tp3705
(g11
I00
tp3706
(g3
I01
tp3707
tp3708
I5
tp3709
I95
s(((g1
I00
tp3710
(g18
I00
tp3711
(g36
I00
tp3712
(g16
I00
tp3713
(g39
I00
tp3714
(g9
I00
tp3715
tp3716
I5
tp3717
I34
s(((g36
I00
tp3718
(g5
I00
tp3719
(g21
I00
tp3720
(g7
I00
tp3721
(g9
I00
tp3722
(g11
I00
tp3723
tp3724
I4
tp3725
I102
s(((g1
I00
tp3726
(g16
I00
tp3727
(g18
I00
tp3728
(g5
I00
tp3729
(g7
I00
tp3730
(g9
I00
tp3731
tp3732
I5
tp3733
I34
s(((g16
I00
tp3734
(g3
I00
tp3735
(g36
I00
tp3736
(g18
I00
tp3737
(g5
I00
tp3738
(g21
I00
tp3739
tp3740
I4
tp3741
I6
s(((g16
I00
tp3742
(g36
I00
tp3743
(g54
I00
tp3744
(g5
I00
tp3745
(g9
I00
tp3746
(g18
I01
tp3747
tp3748
I5
tp3749
I132
s(((g1
I00
tp3750
(g3
I00
tp3751
(g5
I00
tp3752
(g39
I00
tp3753
(g21
I00
tp3754
(g11
I00
tp3755
tp3756
I5
tp3757
I170
s(((g54
I00
tp3758
(g5
I00
tp3759
(g11
I00
tp3760
(g1
I01
tp3761
(g7
I01
tp3762
(g9
I01
tp3763
tp3764
I5
tp3765
I256
s(((g16
I00
tp3766
(g36
I00
tp3767
(g18
I00
tp3768
(g9
I00
tp3769
(g1
I01
tp3770
(g7
I01
tp3771
tp3772
I5
tp3773
I19
s(((g18
I00
tp3774
(g5
I00
tp3775
(g21
I00
tp3776
(g7
I00
tp3777
(g9
I00
tp3778
(g3
I01
tp3779
tp3780
I5
tp3781
I22
s(((g1
I00
tp3782
(g3
I00
tp3783
(g39
I00
tp3784
(g11
I00
tp3785
(g5
I01
tp3786
(g21
I01
tp3787
tp3788
I5
tp3789
I18
s(((g18
I00
tp3790
(g36
I00
tp3791
(g5
I00
tp3792
(g39
I00
tp3793
(g21
I00
tp3794
(g11
I00
tp3795
tp3796
I5
tp3797
I1
s(((g1
I00
tp3798
(g3
I00
tp3799
(g5
I00
tp3800
(g21
I00
tp3801
(g9
I00
tp3802
(g11
I00
tp3803
tp3804
I5
tp3805
I90
s(((g16
I00
tp3806
(g36
I00
tp3807
(g5
I00
tp3808
(g21
I00
tp3809
(g7
I00
tp3810
(g18
I01
tp3811
tp3812
I5
tp3813
I330
s(((g18
I00
tp3814
(g3
I00
tp3815
(g5
I00
tp3816
(g21
I00
tp3817
(g7
I00
tp3818
(g9
I00
tp3819
tp3820
I5
tp3821
I24
s(((g18
I00
tp3822
(g3
I00
tp3823
(g36
I00
tp3824
(g21
I00
tp3825
(g7
I00
tp3826
(g9
I00
tp3827
tp3828
I5
tp3829
I102
s(((g1
I00
tp3830
(g16
I00
tp3831
(g3
I00
tp3832
(g47
I00
tp3833
(g21
I00
tp3834
(g11
I00
tp3835
tp3836
I3
tp3837
I68
s(((g39
I00
tp3838
(g3
I00
tp3839
(g36
I00
tp3840
(g47
I00
tp3841
(g9
I00
tp3842
(g11
I00
tp3843
tp3844
I5
tp3845
I34
s(((g1
I00
tp3846
(g18
I00
tp3847
(g5
I00
tp3848
(g21
I00
tp3849
(g7
I00
tp3850
(g9
I00
tp3851
tp3852
I5
tp3853
I374
s(((g16
I00
tp3854
(g36
I00
tp3855
(g18
I00
tp3856
(g21
I00
tp3857
(g7
I00
tp3858
(g9
I00
tp3859
tp3860
I5
tp3861
I374
s(((g1
I00
tp3862
(g3
I00
tp3863
(g18
I00
tp3864
(g9
I00
tp3865
(g16
I01
tp3866
(g21
I01
tp3867
tp3868
I5
tp3869
I28
s(((g1
I00
tp3870
(g5
I00
tp3871
(g21
I00
tp3872
(g7
I00
tp3873
(g9
I00
tp3874
(g11
I00
tp3875
tp3876
I5
tp3877
I19
s(((g18
I00
tp3878
(g5
I00
tp3879
(g47
I00
tp3880
(g21
I00
tp3881
(g7
I00
tp3882
(g36
I01
tp3883
tp3884
I5
tp3885
I6
s(((g1
I00
tp3886
(g16
I00
tp3887
(g3
I00
tp3888
(g21
I00
tp3889
(g9
I00
tp3890
(g11
I00
tp3891
tp3892
I5
tp3893
I102
s(((g1
I00
tp3894
(g5
I00
tp3895
(g7
I00
tp3896
(g9
I00
tp3897
(g11
I00
tp3898
(g3
I01
tp3899
tp3900
I5
tp3901
I240
s(((g18
I00
tp3902
(g36
I00
tp3903
(g5
I00
tp3904
(g7
I00
tp3905
(g11
I00
tp3906
(g21
I01
tp3907
tp3908
I5
tp3909
I56
s(((g1
I00
tp3910
(g16
I00
tp3911
(g3
I00
tp3912
(g39
I00
tp3913
(g21
I00
tp3914
(g11
I00
tp3915
tp3916
I3
tp3917
I102
s(((g18
I00
tp3918
(g36
I00
tp3919
(g16
I00
tp3920
(g47
I00
tp3921
(g21
I00
tp3922
(g7
I00
tp3923
tp3924
I5
tp3925
I45
s(((g18
I00
tp3926
(g21
I00
tp3927
(g9
I00
tp3928
(g11
I00
tp3929
(g1
I01
tp3930
(g47
I01
tp3931
tp3932
I5
tp3933
I64
s(((g1
I00
tp3934
(g36
I00
tp3935
(g54
I00
tp3936
(g5
I00
tp3937
(g7
I00
tp3938
(g9
I00
tp3939
tp3940
I5
tp3941
I241
s(((g36
I00
tp3942
(g16
I00
tp3943
(g5
I00
tp3944
(g39
I00
tp3945
(g18
I01
tp3946
(g54
I01
tp3947
tp3948
I5
tp3949
I96
s(((g16
I00
tp3950
(g3
I00
tp3951
(g5
I00
tp3952
(g21
I00
tp3953
(g7
I00
tp3954
(g11
I00
tp3955
tp3956
I5
tp3957
I102
s(((g3
I00
tp3958
(g36
I00
tp3959
(g21
I00
tp3960
(g7
I00
tp3961
(g9
I00
tp3962
(g11
I00
tp3963
tp3964
I4
tp3965
I238
s(((g1
I00
tp3966
(g3
I00
tp3967
(g5
I00
tp3968
(g39
I00
tp3969
(g21
I00
tp3970
(g18
I01
tp3971
tp3972
I5
tp3973
I124
s(((g1
I00
tp3974
(g18
I00
tp3975
(g5
I00
tp3976
(g47
I00
tp3977
(g7
I00
tp3978
(g9
I00
tp3979
tp3980
I5
tp3981
I34
s(((g16
I00
tp3982
(g36
I00
tp3983
(g3
I00
tp3984
(g21
I00
tp3985
(g7
I00
tp3986
(g9
I00
tp3987
tp3988
I5
tp3989
I136
s(((g18
I00
tp3990
(g36
I00
tp3991
(g47
I00
tp3992
(g21
I00
tp3993
(g7
I00
tp3994
(g5
I01
tp3995
tp3996
I5
tp3997
I5
s(((g36
I00
tp3998
(g21
I00
tp3999
(g9
I00
tp4000
(g11
I00
tp4001
(g1
I01
tp4002
(g47
I01
tp4003
tp4004
I4
tp4005
I99
s(((g18
I00
tp4006
(g21
I00
tp4007
(g7
I00
tp4008
(g9
I00
tp4009
(g11
I00
tp4010
(g3
I01
tp4011
tp4012
I5
tp4013
I99
s(dp4014
(g13
I4
tp4015
F81.33211982255412
s(g24
I4
tp4016
F28.268449445221226
s(g32
I5
tp4017
F52.05916612057481
s(g42
I5
tp4018
F-0.9999500177758068
s(g51
I5
tp4019
F68.29205622717863
s(g60
I4
tp4020
F-1.0
s(g68
I5
tp4021
F-0.8261724183162139
s(g76
I5
tp4022
F78.66427722304329
s(g84
I5
tp4023
F39.119251854918296
s(g92
I5
tp4024
F70.90830363201795
s(g100
I5
tp4025
F1.1099298156729198
s(g108
I5
tp4026
F-0.40709906750483893
s(g116
I5
tp4027
F23.231058836975556
s(g124
I5
tp4028
F9.526034838252208
s(g132
I4
tp4029
F-0.9999999999885247
s(g140
I4
tp4030
F-1.0
s(g148
I4
tp4031
F-0.9999500177758068
s(g156
I5
tp4032
F4.337998590636197
s(g164
I5
tp4033
F-0.26788533522934843
s(g172
I5
tp4034
F56.6958688513729
s(g180
I4
tp4035
F-1.0
s(g188
I3
tp4036
F13.98040554760657
s(g196
I5
tp4037
F52.73033979539395
s(g204
I5
tp4038
F7.1136208890698
s(g212
I5
tp4039
F-1.0
s(g220
I5
tp4040
F0.5110810076302781
s(g228
I5
tp4041
F40.33226267969585
s(g236
I5
tp4042
F-0.999999961407396
s(g244
I5
tp4043
F39.60276923665331
s(g252
I4
tp4044
F54.0884982977594
s(g260
I5
tp4045
F21.308564774693693
s(g268
I5
tp4046
F7.833460513941766
s(g276
I5
tp4047
F62.11317081663543
s(g284
I4
tp4048
F65.86919194225912
s(g292
I5
tp4049
F53.89321817691949
s(g300
I5
tp4050
F7.752178775124365
s(g308
I5
tp4051
F19.43468977233116
s(g316
I5
tp4052
F-1.0
s(g324
I3
tp4053
F23.62485809285139
s(g332
I5
tp4054
F62.9584176548669
s(g340
I5
tp4055
F82.50456815255386
s(g348
I5
tp4056
F-0.975025080618621
s(g356
I3
tp4057
F-0.9973651470224744
s(g364
I5
tp4058
F-0.9999500177758068
s(g372
I4
tp4059
F8.364633512434756
s(g380
I5
tp4060
F3.136443360549312
s(g388
I5
tp4061
F0.44996067191570677
s(g396
I4
tp4062
F19.711682100037287
s(g404
I5
tp4063
F0.8087641500176086
s(g412
I5
tp4064
F49.12556520089348
s(g420
I5
tp4065
F-0.9743380504576252
s(g428
I5
tp4066
F22.53343592368434
s(g436
I5
tp4067
F55.46321021306831
s(g444
I5
tp4068
F38.882616888116324
s(g452
I5
tp4069
F49.620139864134345
s(g460
I5
tp4070
F32.99555325439002
s(g468
I5
tp4071
F-1.0
s(g476
I5
tp4072
F-1.0
s(g484
I5
tp4073
F-0.3445544851243926
s(g492
I5
tp4074
F11.756820326828848
s(g500
I5
tp4075
F8.257879377032026
s(g508
I5
tp4076
F5.351090248765887
s(g516
I5
tp4077
F-0.9999995917882377
s(g524
I5
tp4078
F62.479327661527385
s(g532
I5
tp4079
F-0.9999500177758068
s(g540
I5
tp4080
F19.311205338142972
s(g548
I5
tp4081
F27.919594345527216
s(g556
I5
tp4082
F-0.9999500177758068
s(g564
I5
tp4083
F50.70715324738614
s(g572
I4
tp4084
F-0.26788533522934843
s(g580
I5
tp4085
F18.343942358464098
s(g588
I4
tp4086
F31.3197243642671
s(g596
I4
tp4087
F-0.9999999971391559
s(g604
I5
tp4088
F23.188608886818674
s(g612
I5
tp4089
F90.52421819195492
s(g620
I5
tp4090
F-1.0
s(g628
I5
tp4091
F-0.2672453594833375
s(g636
I5
tp4092
F-1.0
s(g644
I5
tp4093
F-0.9999998095405881
s(g652
I5
tp4094
F34.558064794113704
s(g660
I5
tp4095
F-0.2673773215261831
s(g668
I5
tp4096
F10.482749444227387
s(g676
I5
tp4097
F-0.2679353174535414
s(g684
I5
tp4098
F52.362802356221565
s(g692
I5
tp4099
F7.076266293986203
s(g700
I5
tp4100
F66.17347582019696
s(g708
I4
tp4101
F-0.9999500177758068
s(g716
I4
tp4102
F24.696023648704827
s(g724
I5
tp4103
F-0.9999999999999478
s(g732
I5
tp4104
F4.044995269770088
s(g740
I5
tp4105
F51.918030692725274
s(g748
I5
tp4106
F58.40731343396834
s(g756
I5
tp4107
F-0.9999999735757674
s(g764
I5
tp4108
F-1.0
s(g772
I5
tp4109
F-1.0
s(g780
I5
tp4110
F2.3487513318527706
s(g788
I5
tp4111
F48.801985357205155
s(g796
I5
tp4112
F10.820731291699847
s(g804
I5
tp4113
F65.49840500225255
s(g812
I5
tp4114
F5.250916950947653
s(g820
I5
tp4115
F8.563581560985508
s(g828
I4
tp4116
F14.72642668732392
s(g836
I5
tp4117
F10.678772746519922
s(g844
I5
tp4118
F0.33083334670992753
s(g852
I5
tp4119
F1.641140793863994
s(g860
I5
tp4120
F39.95007712429323
s(g868
I5
tp4121
F7.43197015183201
s(g876
I5
tp4122
F28.870481397583482
s(g884
I5
tp4123
F-1.0
s(g892
I5
tp4124
F-1.0
s(g900
I4
tp4125
F-0.26658178443469926
s(g908
I5
tp4126
F3.252688438656087
s(g916
I5
tp4127
F19.926926192709644
s(g924
I5
tp4128
F-1.0
s(g932
I5
tp4129
F-1.0
s(g940
I5
tp4130
F7.1136208890698
s(g948
I4
tp4131
F-1.0
s(g956
I5
tp4132
F4.185693455233143
s(g964
I5
tp4133
F36.47294418137101
s(g972
I5
tp4134
F58.75906709400647
s(g980
I5
tp4135
F8.3723819589276
s(g988
I5
tp4136
F70.33663884596169
s(g996
I5
tp4137
F-0.9997109375490736
s(g1004
I5
tp4138
F3.4911521779794477
s(g1012
I5
tp4139
F3.1272393469064728
s(g1020
I5
tp4140
F33.03751413617021
s(g1028
I5
tp4141
F-1.0
s(g1036
I5
tp4142
F69.8167117638717
s(g1044
I5
tp4143
F24.19452704069014
s(g1052
I5
tp4144
F7.1136208890698
s(g1060
I5
tp4145
F6.035889188031785
s(g1068
I5
tp4146
F90.17357637649917
s(g1076
I4
tp4147
F-0.986918739160054
s(g1084
I5
tp4148
F-0.9152322472085985
s(g1092
I3
tp4149
F-0.26788533522934843
s(g1100
I5
tp4150
F9.196245929514742
s(g1108
I5
tp4151
F52.942664940165166
s(g1116
I5
tp4152
F20.89128057403636
s(g1124
I1
tp4153
F-1.0
s(g1132
I5
tp4154
F6.6493493263698
s(g1140
I5
tp4155
F-0.26788533522934843
s(g1148
I5
tp4156
F-1.0
s(g1156
I5
tp4157
F-1.0
s(g1164
I5
tp4158
F-0.9999999999999997
s(g1172
I5
tp4159
F-0.05861399861394012
s(g1180
I5
tp4160
F16.6241837193495
s(g1188
I5
tp4161
F91.60173452553897
s(g1196
I5
tp4162
F70.83170805435051
s(g1204
I5
tp4163
F73.9373251000007
s(g1212
I5
tp4164
F-1.0
s(g1220
I5
tp4165
F1.3307929562083824
s(g1228
I5
tp4166
F36.1674123907342
s(g1236
I5
tp4167
F55.23154415115867
s(g1244
I5
tp4168
F16.67194282739713
s(g1252
I5
tp4169
F2.72970169337086
s(g1260
I2
tp4170
F0.8087641500176086
s(g1268
I4
tp4171
F-0.06640220278752418
s(g1276
I2
tp4172
F-0.9999500177758068
s(g1284
I5
tp4173
F-0.9999999675388124
s(g1292
I5
tp4174
F-1.0
s(g1300
I5
tp4175
F10.261134788428317
s(g1308
I5
tp4176
F0.23458050195041824
s(g1316
I5
tp4177
F1.833031717806353
s(g1324
I5
tp4178
F0.26817406327769566
s(g1332
I5
tp4179
F-0.26658178443469926
s(g1340
I5
tp4180
F55.4847043793042
s(g1348
I5
tp4181
F-1.0
s(g1356
I5
tp4182
F36.28214933074061
s(g1364
I5
tp4183
F70.77099746904663
s(g1372
I2
tp4184
F-1.0
s(g1380
I5
tp4185
F1.032279464814825
s(g1388
I5
tp4186
F0.9211920199999999
s(g1396
I5
tp4187
F-0.26793521829770295
s(g1404
I5
tp4188
F46.58804949993365
s(g1412
I5
tp4189
F-1.0
s(g1420
I4
tp4190
F-1.0
s(g1428
I5
tp4191
F-0.9999999999999999
s(g1436
I5
tp4192
F89.48742536608327
s(g1444
I5
tp4193
F84.03590226849686
s(g1452
I5
tp4194
F0.20148313244182425
s(g1460
I5
tp4195
F53.030196897208256
s(g1468
I5
tp4196
F27.052483357088256
s(g1476
I5
tp4197
F47.06634079863987
s(g1484
I5
tp4198
F-0.9999999470597627
s(g1492
I5
tp4199
F10.61334819125758
s(g1500
I5
tp4200
F17.390881306781633
s(g1508
I5
tp4201
F-1.0
s(g1516
I5
tp4202
F67.8666708504833
s(g1524
I5
tp4203
F29.93713727215923
s(g1532
I5
tp4204
F-0.8421538904726263
s(g1540
I5
tp4205
F90.8130005099807
s(g1548
I5
tp4206
F-0.6230464213775856
s(g1556
I5
tp4207
F24.730126618204768
s(g1564
I5
tp4208
F3.7288803218808613
s(g1572
I5
tp4209
F74.09274653286604
s(g1580
I5
tp4210
F47.186205294032774
s(g1588
I4
tp4211
F-0.2679353174535415
s(g1596
I5
tp4212
F77.78050148868937
s(g1604
I5
tp4213
F41.86103726501926
s(g1612
I5
tp4214
F39.241624371775714
s(g1620
I4
tp4215
F11.608746727960723
s(g1628
I5
tp4216
F-0.8512706969596704
s(g1636
I5
tp4217
F47.436565093504406
s(g1644
I5
tp4218
F-0.47980505545507646
s(g1652
I5
tp4219
F16.48362527894887
s(g1660
I5
tp4220
F50.25876482747277
s(g1668
I4
tp4221
F0.011732684018645023
s(g1676
I5
tp4222
F72.25064628095872
s(g1684
I5
tp4223
F-1.0
s(g1692
I5
tp4224
F7.1136208890698
s(g1700
I5
tp4225
F10.91017567474109
s(g1708
I5
tp4226
F4.61029703817896
s(g1716
I5
tp4227
F29.04901541936308
s(g1724
I5
tp4228
F-0.2679353174535414
s(g1732
I5
tp4229
F3.915993101973191
s(g1740
I5
tp4230
F-1.0
s(g1748
I3
tp4231
F7.817637367404606
s(g1756
I5
tp4232
F11.6789143531568
s(g1764
I5
tp4233
F-1.0
s(g1772
I4
tp4234
F6.024821780018536
s(g1780
I5
tp4235
F-1.0
s(g1788
I5
tp4236
F84.34377037634367
s(g1796
I3
tp4237
F9.763205020476335
s(g1804
I5
tp4238
F40.93125889192094
s(g1812
I5
tp4239
F0.9354009349600532
s(g1820
I5
tp4240
F72.99444963228181
s(g1828
I5
tp4241
F32.86435166184106
s(g1836
I5
tp4242
F34.6551381898109
s(g1844
I5
tp4243
F-0.9950114226510269
s(g1852
I5
tp4244
F44.751750704878965
s(g1860
I3
tp4245
F-1.0
s(g1868
I5
tp4246
F7.855370070060356
s(g1876
I5
tp4247
F51.30142061882391
s(g1884
I5
tp4248
F44.787153834097786
s(g1892
I5
tp4249
F-0.4771942242670225
s(g1900
I4
tp4250
F-0.458491480976012
s(g1908
I5
tp4251
F-0.2629467401045684
s(g1916
I5
tp4252
F0.7772509961493643
s(g1924
I5
tp4253
F44.30078471841269
s(g1932
I5
tp4254
F88.73587795079905
s(g1940
I4
tp4255
F8.563581560985508
s(g1948
I5
tp4256
F41.31368320197892
s(g1956
I4
tp4257
F62.394451311743104
s(g1964
I5
tp4258
F-1.0
s(g1972
I5
tp4259
F-0.9999500177758068
s(g1980
I5
tp4260
F-1.0
s(g1988
I5
tp4261
F84.80188865422986
s(g1996
I5
tp4262
F62.37366644291403
s(g2004
I5
tp4263
F3.38123480327424
s(g2012
I5
tp4264
F0.31532871113239824
s(g2020
I4
tp4265
F6.176671018034414
s(g2028
I5
tp4266
F9.070422221140776
s(g2036
I5
tp4267
F-1.0
s(g2044
I3
tp4268
F53.259203492715514
s(g2052
I5
tp4269
F-1.0
s(g2060
I4
tp4270
F-1.0
s(g2068
I5
tp4271
F-0.26788533522934843
s(g2076
I4
tp4272
F25.497498381281407
s(g2084
I5
tp4273
F29.04901541936308
s(g2092
I5
tp4274
F7.80179593733234
s(g2100
I5
tp4275
F16.67085281326186
s(g2108
I5
tp4276
F-1.0
s(g2116
I5
tp4277
F25.09020504025705
s(g2124
I5
tp4278
F-0.458491480976012
s(g2132
I5
tp4279
F15.14544481265252
s(g2140
I3
tp4280
F16.464587508895182
s(g2148
I5
tp4281
F3.9265888263005717
s(g2156
I5
tp4282
F-1.0
s(g2164
I4
tp4283
F35.9241681031841
s(g2172
I5
tp4284
F-1.0
s(g2180
I4
tp4285
F-0.7677312277780888
s(g2188
I5
tp4286
F18.25022929986099
s(g2196
I4
tp4287
F47.54797648084437
s(g2204
I5
tp4288
F-0.9680082900334959
s(g2212
I5
tp4289
F58.62794518324771
s(g2220
I4
tp4290
F-1.0
s(g2228
I5
tp4291
F57.49391045699458
s(g2236
I5
tp4292
F12.520635137379113
s(g2244
I5
tp4293
F48.04555618039883
s(g2252
I3
tp4294
F47.406841397334816
s(g2260
I5
tp4295
F-0.9795853151710999
s(g2268
I5
tp4296
F-0.45848988682988445
s(g2276
I5
tp4297
F-0.9967947703652562
s(g2284
I5
tp4298
F44.56183759896727
s(g2292
I5
tp4299
F47.57246000258732
s(g2300
I5
tp4300
F22.135040618997596
s(g2308
I5
tp4301
F41.86361826057053
s(g2316
I5
tp4302
F-0.9999997721262572
s(g2324
I5
tp4303
F80.2371798660087
s(g2332
I5
tp4304
F8.563581560985508
s(g2340
I5
tp4305
F-0.05505656580725182
s(g2348
I5
tp4306
F42.11910907439128
s(g2356
I5
tp4307
F139.54438574590435
s(g2364
I5
tp4308
F51.886796001411106
s(g2372
I5
tp4309
F-0.2679353174535415
s(g2380
I5
tp4310
F17.122324311735518
s(g2388
I5
tp4311
F-0.05505656580725182
s(g2396
I4
tp4312
F7.913427615090596
s(g2404
I5
tp4313
F29.644640532475552
s(g2412
I5
tp4314
F8.166148589839011
s(g2420
I5
tp4315
F-1.0
s(g2428
I5
tp4316
F9.151507189003885
s(g2436
I3
tp4317
F-1.0
s(g2444
I4
tp4318
F-1.0
s(g2452
I5
tp4319
F10.678387293669852
s(g2460
I5
tp4320
F86.99405511080319
s(g2468
I5
tp4321
F8.563581560985508
s(g2476
I5
tp4322
F-1.0
s(g2484
I5
tp4323
F-1.0
s(g2492
I5
tp4324
F10.556309073099815
s(g2500
I5
tp4325
F-1.0
s(g2508
I5
tp4326
F-0.2679353174535414
s(g2516
I5
tp4327
F0.44996067191570677
s(g2524
I3
tp4328
F30.496145269722085
s(g2532
I5
tp4329
F77.31604105934551
s(g2540
I5
tp4330
F19.701068681060942
s(g2548
I5
tp4331
F-0.9999500177758068
s(g2556
I5
tp4332
F-0.5246141393522865
s(g2564
I5
tp4333
F-0.8137521740097283
s(g2572
I5
tp4334
F15.27557412744162
s(g2580
I5
tp4335
F38.50473185237242
s(g2588
I5
tp4336
F-0.9999999962414383
s(g2596
I5
tp4337
F8.563581560985508
s(g2604
I5
tp4338
F31.759113660398263
s(g2612
I5
tp4339
F-1.0
s(g2620
I5
tp4340
F37.236348378425134
s(g2628
I4
tp4341
F-1.0
s(g2636
I4
tp4342
F-1.0
s(g2644
I5
tp4343
F0.44996067191570677
s(g2652
I5
tp4344
F28.057915125868423
s(g2660
I5
tp4345
F7.395094844351286
s(g2668
I5
tp4346
F1.235763829390427
s(g2676
I5
tp4347
F10.678772746519922
s(g2684
I5
tp4348
F9.526034838252208
s(g2692
I3
tp4349
F9.526034838252208
s(g2700
I5
tp4350
F20.561657788987954
s(g2708
I5
tp4351
F76.48999998039446
s(g2716
I5
tp4352
F-0.986918739160054
s(g2724
I5
tp4353
F-1.0
s(g2732
I5
tp4354
F-1.0
s(g2740
I5
tp4355
F7.869186041418435
s(g2748
I5
tp4356
F16.394329878328318
s(g2756
I5
tp4357
F-0.9999500177758068
s(g2764
I4
tp4358
F29.19975355738137
s(g2772
I5
tp4359
F47.43539973197631
s(g2780
I5
tp4360
F24.05155760716597
s(g2788
I5
tp4361
F-0.2679353174535415
s(g2796
I5
tp4362
F12.39192657722164
s(g2804
I5
tp4363
F32.124286924584524
s(g2812
I5
tp4364
F4.160163924512599
s(g2820
I5
tp4365
F73.61356138215778
s(g2828
I4
tp4366
F-1.0
s(g2836
I4
tp4367
F35.66403567455254
s(g2844
I5
tp4368
F26.652491097522724
s(g2852
I5
tp4369
F11.887728549038146
s(g2860
I4
tp4370
F-0.2679353174535415
s(g2868
I5
tp4371
F-1.0
s(g2876
I5
tp4372
F-0.4771942242670225
s(g2884
I5
tp4373
F-0.2679353174535415
s(g2892
I5
tp4374
F11.830614356576088
s(g2900
I5
tp4375
F-1.0
s(g2908
I5
tp4376
F15.885184312766112
s(g2916
I4
tp4377
F3.129889689664992
s(g2924
I4
tp4378
F50.99805928781262
s(g2932
I5
tp4379
F55.39188983626157
s(g2940
I5
tp4380
F-0.2013905843185373
s(g2948
I5
tp4381
F52.93447240196632
s(g2956
I5
tp4382
F82.75878114615188
s(g2964
I5
tp4383
F27.41844549432597
s(g2972
I5
tp4384
F-0.7387512636819485
s(g2980
I5
tp4385
F-1.0
s(g2988
I5
tp4386
F11.996304845094274
s(g2996
I5
tp4387
F24.432602347114862
s(g3004
I5
tp4388
F10.482749444227387
s(g3012
I5
tp4389
F81.72662927078738
s(g3020
I5
tp4390
F0.44996067191570677
s(g3028
I5
tp4391
F48.62373086717698
s(g3036
I3
tp4392
F-0.9999500177758068
s(g3044
I5
tp4393
F43.12166897606723
s(g3052
I5
tp4394
F47.798346596373484
s(g3060
I5
tp4395
F-0.9999997085579865
s(g3068
I5
tp4396
F0.44996067191570677
s(g3076
I4
tp4397
F-1.0
s(g3084
I5
tp4398
F-0.26992376872076385
s(g3092
I5
tp4399
F8.563581560985508
s(g3100
I4
tp4400
F-0.9873193467381092
s(g3108
I5
tp4401
F28.298322639422395
s(g3116
I5
tp4402
F-0.26793531202051946
s(g3124
I5
tp4403
F21.433372269274006
s(g3132
I4
tp4404
F-1.0
s(g3140
I5
tp4405
F16.67025834806008
s(g3148
I5
tp4406
F7.1136208890698
s(g3156
I4
tp4407
F-0.984087968501574
s(g3164
I5
tp4408
F0.44996067191570677
s(g3172
I5
tp4409
F0.44996067191570677
s(g3180
I4
tp4410
F100.91498554410532
s(g3188
I5
tp4411
F-0.9982022210135197
s(g3196
I5
tp4412
F20.530157174289194
s(g3204
I5
tp4413
F3.0997946740258726
s(g3212
I5
tp4414
F-0.5408328561385145
s(g3220
I5
tp4415
F-0.9999500177758068
s(g3228
I5
tp4416
F6.664241556267353
s(g3236
I5
tp4417
F-1.0
s(g3244
I5
tp4418
F41.9487755967755
s(g3252
I5
tp4419
F42.512564009743585
s(g3260
I4
tp4420
F14.035634087990701
s(g3268
I5
tp4421
F45.61675197515787
s(g3276
I5
tp4422
F-1.0
s(g3284
I5
tp4423
F36.40685724892822
s(g3292
I5
tp4424
F46.130183625471204
s(g3300
I5
tp4425
F49.22987978278324
s(g3308
I5
tp4426
F9.059739833620853
s(g3316
I5
tp4427
F36.641113217130766
s(g3324
I5
tp4428
F50.16636310687696
s(g3332
I5
tp4429
F25.776516911063
s(g3340
I5
tp4430
F0.44996067191570677
s(g3348
I5
tp4431
F-0.982655492446388
s(g3356
I5
tp4432
F2.2276405040329523
s(g3364
I2
tp4433
F0.0
s(g3372
I5
tp4434
F8.657978933460361
s(g3380
I5
tp4435
F40.01247614647934
s(g3388
I5
tp4436
F7.188480066435587
s(g3396
I5
tp4437
F66.260194589541
s(g3404
I5
tp4438
F67.98957333935051
s(g3412
I5
tp4439
F10.678387293669852
s(g3420
I4
tp4440
F4.321322230476086
s(g3428
I5
tp4441
F13.690761683087729
s(g3436
I5
tp4442
F35.14183848829366
s(g3444
I5
tp4443
F99.73299345513946
s(g3452
I5
tp4444
F-1.0
s(g3460
I5
tp4445
F7.8431751510700956
s(g3468
I5
tp4446
F0.4794007467765604
s(g3476
I5
tp4447
F-1.0
s(g3484
I4
tp4448
F-0.26788533522934843
s(g3492
I4
tp4449
F0.28628164394499267
s(g3500
I5
tp4450
F103.61163306731486
s(g3508
I4
tp4451
F20.575116302394004
s(g3516
I5
tp4452
F4.459332181438713
s(g3524
I3
tp4453
F-0.9973651470224744
s(g3532
I5
tp4454
F7.255732674242433
s(g3540
I5
tp4455
F21.45065621030652
s(g3548
I3
tp4456
F-0.4771942242670225
s(g3556
I5
tp4457
F-0.9999999999999978
s(g3564
I5
tp4458
F5.956125555465554
s(g3572
I5
tp4459
F4.102676862637568
s(g3580
I5
tp4460
F0.2620656783323416
s(g3588
I4
tp4461
F7.1355691140204875
s(g3596
I4
tp4462
F44.701167020722906
s(g3604
I5
tp4463
F-1.0
s(g3612
I5
tp4464
F1.0
s(g3620
I5
tp4465
F0.030274234847606607
s(g3628
I5
tp4466
F-1.0
s(g3636
I5
tp4467
F56.3382812124428
s(g3644
I5
tp4468
F-0.2868446951918028
s(g3652
I5
tp4469
F42.30249217280579
s(g3660
I5
tp4470
F98.13987639142034
s(g3668
I5
tp4471
F47.564363570176766
s(g3676
I5
tp4472
F-1.0
s(g3684
I5
tp4473
F-1.0
s(g3692
I4
tp4474
F12.498361657715897
s(g3700
I5
tp4475
F7.215470800209843
s(g3708
I5
tp4476
F23.9950335634643
s(g3716
I5
tp4477
F8.563581560985508
s(g3724
I4
tp4478
F0.2553788239644612
s(g3732
I5
tp4479
F18.08875639034529
s(g3740
I4
tp4480
F-1.0
s(g3748
I5
tp4481
F22.24284997547538
s(g3756
I5
tp4482
F-0.986918739160054
s(g3764
I5
tp4483
F16.680763978461073
s(g3772
I5
tp4484
F57.63544811992778
s(g3780
I5
tp4485
F27.93592886678572
s(g3788
I5
tp4486
F-1.0
s(g3796
I5
tp4487
F-1.0
s(g3804
I5
tp4488
F-0.999999803605131
s(g3812
I5
tp4489
F1.7148099050030112
s(g3820
I5
tp4490
F17.20218779774609
s(g3828
I5
tp4491
F36.91198548325467
s(g3836
I3
tp4492
F-1.0
s(g3844
I5
tp4493
F66.21142532420181
s(g3852
I5
tp4494
F44.98894657451604
s(g3860
I5
tp4495
F70.9024167692412
s(g3868
I5
tp4496
F27.769482702516285
s(g3876
I5
tp4497
F28.891382107114204
s(g3884
I5
tp4498
F7.939704254463223
s(g3892
I5
tp4499
F-0.9979740903674015
s(g3900
I5
tp4500
F84.01924035184226
s(g3908
I5
tp4501
F0.16233282823626194
s(g3916
I3
tp4502
F-0.9999500177758068
s(g3924
I5
tp4503
F39.70458207685481
s(g3932
I5
tp4504
F-0.9999999979537968
s(g3940
I5
tp4505
F70.47538075928962
s(g3948
I5
tp4506
F14.905742954615702
s(g3956
I5
tp4507
F-1.0
s(g3964
I4
tp4508
F7.692225738662178
s(g3972
I5
tp4509
F-0.9999999896892247
s(g3980
I5
tp4510
F60.29087476694515
s(g3988
I5
tp4511
F49.530088844225055
s(g3996
I5
tp4512
F9.470334502726155
s(g4004
I4
tp4513
F20.51355602293149
s(g4012
I5
tp4514
F27.622163366569616
s(dp4515
(g13
I4
tp4516
F0.08187728905270841
s(g24
I4
tp4517
F0.17931568359471056
s(g32
I5
tp4518
F0.6235253948912
s(g42
I5
tp4519
F0.36237201786049694
s(g51
I5
tp4520
F0.6050060671375365
s(g60
I4
tp4521
F0.36237201786049694
s(g68
I5
tp4522
F0.8775210229989678
s(g76
I5
tp4523
F0.15422195179384465
s(g84
I5
tp4524
F0.9414801494009999
s(g92
I5
tp4525
F0.40882017442254937
s(g100
I5
tp4526
F0.4658807751697934
s(g108
I5
tp4527
F0.8775210229989678
s(g116
I5
tp4528
F0.5753547499769285
s(g124
I5
tp4529
F0.5099857462495653
s(g132
I4
tp4530
F0.5099857462495653
s(g140
I4
tp4531
F0.7249803359578534
s(g148
I4
tp4532
F0.36237201786049694
s(g156
I5
tp4533
F0.4998370298991989
s(g164
I5
tp4534
F0.36237201786049694
s(g172
I5
tp4535
F0.002241625821825393
s(g180
I4
tp4536
F0.36237201786049694
s(g188
I3
tp4537
F0.36237201786049694
s(g196
I5
tp4538
F0.002241625821825393
s(g204
I5
tp4539
F0.7177305325982748
s(g212
I5
tp4540
F0.9043820750088043
s(g220
I5
tp4541
F0.15422195179384465
s(g228
I5
tp4542
F0.03313835671585597
s(g236
I5
tp4543
F0.4998370298991989
s(g244
I5
tp4544
F0.5471566423907612
s(g252
I4
tp4545
F0.09237216435585804
s(g260
I5
tp4546
F0.09237216435585804
s(g268
I5
tp4547
F0.9414801494009999
s(g276
I5
tp4548
F0.27348915102221616
s(g284
I4
tp4549
F0.6894490858690777
s(g292
I5
tp4550
F0.20640753711741366
s(g300
I5
tp4551
F0.8775210229989678
s(g308
I5
tp4552
F0.03313835671585597
s(g316
I5
tp4553
F0.26804671691687404
s(g324
I3
tp4554
F0.006062878367216695
s(g332
I5
tp4555
F0.09237216435585804
s(g340
I5
tp4556
F0.5203405226503064
s(g348
I5
tp4557
F0.7778213593991465
s(g356
I3
tp4558
F0.2574846067639487
s(g364
I5
tp4559
F0.36237201786049694
s(g372
I4
tp4560
F0.30545902592830454
s(g380
I5
tp4561
F0.4658807751697934
s(g388
I5
tp4562
F0.7177305325982748
s(g396
I4
tp4563
F0.9414801494009999
s(g404
I5
tp4564
F0.8953382542587163
s(g412
I5
tp4565
F0.7856781408072188
s(g420
I5
tp4566
F0.7778213593991465
s(g428
I5
tp4567
F0.5203405226503064
s(g436
I5
tp4568
F0.36237201786049694
s(g444
I5
tp4569
F0.016731088683427906
s(g452
I5
tp4570
F0.3212010745647914
s(g460
I5
tp4571
F0.9801
s(g468
I5
tp4572
F0.2790420885850588
s(g476
I5
tp4573
F0.26804671691687404
s(g484
I5
tp4574
F0.3244455298634257
s(g492
I5
tp4575
F0.40882017442254937
s(g500
I5
tp4576
F0.7856781408072188
s(g508
I5
tp4577
F0.30545902592830454
s(g516
I5
tp4578
F0.6111172395328651
s(g524
I5
tp4579
F0.4998370298991989
s(g532
I5
tp4580
F0.36237201786049694
s(g540
I5
tp4581
F0.4298890135238936
s(g548
I5
tp4582
F0.1923853128939671
s(g556
I5
tp4583
F0.36237201786049694
s(g564
I5
tp4584
F0.0010871691789690443
s(g572
I4
tp4585
F0.36237201786049694
s(g580
I5
tp4586
F0.30545902592830454
s(g588
I4
tp4587
F0.12741333767875881
s(g596
I4
tp4588
F0.5203405226503064
s(g604
I5
tp4589
F0.5099857462495653
s(g612
I5
tp4590
F0.31480917318095203
s(g620
I5
tp4591
F0.8953382542587163
s(g628
I5
tp4592
F0.36237201786049694
s(g636
I5
tp4593
F0.36237201786049694
s(g644
I5
tp4594
F0.6111172395328651
s(g652
I5
tp4595
F0.5870367819374844
s(g660
I5
tp4596
F0.36237201786049694
s(g668
I5
tp4597
F0.9320653479069899
s(g676
I5
tp4598
F0.36237201786049694
s(g684
I5
tp4599
F0.36237201786049694
s(g692
I5
tp4600
F0.9043820750088043
s(g700
I5
tp4601
F0.334376856889913
s(g708
I4
tp4602
F0.36237201786049694
s(g716
I4
tp4603
F0.02629907322618195
s(g724
I5
tp4604
F0.5753547499769285
s(g732
I5
tp4605
F0.7323033696543974
s(g740
I5
tp4606
F0.8345137614500874
s(g748
I5
tp4607
F0.5811664141181095
s(g756
I5
tp4608
F0.4998370298991989
s(g764
I5
tp4609
F0.36237201786049694
s(g772
I5
tp4610
F0.7177305325982748
s(g780
I5
tp4611
F0.4520436502664754
s(g788
I5
tp4612
F0.10632818368521123
s(g796
I5
tp4613
F0.3848960788934847
s(g804
I5
tp4614
F0.4298890135238936
s(g812
I5
tp4615
F0.5203405226503064
s(g820
I5
tp4616
F0.7177305325982748
s(g828
I4
tp4617
F0.09237216435585804
s(g836
I5
tp4618
F0.92274469442792
s(g844
I5
tp4619
F0.3516092065580223
s(g852
I5
tp4620
F0.0003527271803217968
s(g860
I5
tp4621
F0.7249803359578534
s(g868
I5
tp4622
F0.8179069375972307
s(g876
I5
tp4623
F0.7177305325982748
s(g884
I5
tp4624
F0.26804671691687404
s(g892
I5
tp4625
F0.9043820750088043
s(g900
I4
tp4626
F0.36237201786049694
s(g908
I5
tp4627
F0.4658807751697934
s(g916
I5
tp4628
F0.8179069375972307
s(g924
I5
tp4629
F0.36237201786049694
s(g932
I5
tp4630
F0.9043820750088043
s(g940
I5
tp4631
F0.7177305325982748
s(g948
I4
tp4632
F0.9414801494009999
s(g956
I5
tp4633
F0.5526834771623851
s(g964
I5
tp4634
F0.26804671691687404
s(g972
I5
tp4635
F0.054225858104063294
s(g980
I5
tp4636
F0.9135172474836407
s(g988
I5
tp4637
F0.6235253948912
s(g996
I5
tp4638
F0.3848960788934847
s(g1004
I5
tp4639
F0.6757290490602831
s(g1012
I5
tp4640
F0.5203405226503064
s(g1020
I5
tp4641
F0.040516047966540916
s(g1028
I5
tp4642
F0.3848960788934847
s(g1036
I5
tp4643
F0.09237216435585804
s(g1044
I5
tp4644
F0.03313835671585597
s(g1052
I5
tp4645
F0.7177305325982748
s(g1060
I5
tp4646
F0.99
s(g1068
I5
tp4647
F0.31480917318095203
s(g1076
I4
tp4648
F0.18295651830906087
s(g1084
I5
tp4649
F0.24733868589386815
s(g1092
I3
tp4650
F0.36237201786049694
s(g1100
I5
tp4651
F0.8514577710948754
s(g1108
I5
tp4652
F0.06304904523214558
s(g1116
I5
tp4653
F0.1923853128939671
s(g1124
I1
tp4654
F0.36237201786049694
s(g1132
I5
tp4655
F0.8429431933839266
s(g1140
I5
tp4656
F0.36237201786049694
s(g1148
I5
tp4657
F0.9043820750088043
s(g1156
I5
tp4658
F0.36237201786049694
s(g1164
I5
tp4659
F0.35516081470507305
s(g1172
I5
tp4660
F0.9135172474836407
s(g1180
I5
tp4661
F0.03313835671585597
s(g1188
I5
tp4662
F0.03970977861200675
s(g1196
I5
tp4663
F0.4520436502664754
s(g1204
I5
tp4664
F0.03313835671585597
s(g1212
I5
tp4665
F0.7177305325982748
s(g1220
I5
tp4666
F0.9414801494009999
s(g1228
I5
tp4667
F0.7936142836436553
s(g1236
I5
tp4668
F0.5309055429551132
s(g1244
I5
tp4669
F0.8429431933839266
s(g1252
I5
tp4670
F0.36237201786049694
s(g1260
I2
tp4671
F0.8953382542587163
s(g1268
I4
tp4672
F0.36237201786049694
s(g1276
I2
tp4673
F0.36237201786049694
s(g1284
I5
tp4674
F0.4998370298991989
s(g1292
I5
tp4675
F0.36237201786049694
s(g1300
I5
tp4676
F0.5099857462495653
s(g1308
I5
tp4677
F0.6111172395328651
s(g1316
I5
tp4678
F0.4998370298991989
s(g1324
I5
tp4679
F0.7177305325982748
s(g1332
I5
tp4680
F0.36237201786049694
s(g1340
I5
tp4681
F0.03381119958765021
s(g1348
I5
tp4682
F0.8097278682212583
s(g1356
I5
tp4683
F0.26804671691687404
s(g1364
I5
tp4684
F0.4520436502664754
s(g1372
I2
tp4685
I1
s(g1380
I5
tp4686
F0.2574846067639487
s(g1388
I5
tp4687
F0.9509900498999999
s(g1396
I5
tp4688
F0.36237201786049694
s(g1404
I5
tp4689
F0.0017789862707850797
s(g1412
I5
tp4690
F0.7177305325982748
s(g1420
I4
tp4691
F0.9414801494009999
s(g1428
I5
tp4692
F0.36237201786049694
s(g1436
I5
tp4693
F0.023546566310951894
s(g1444
I5
tp4694
F0.6050060671375365
s(g1452
I5
tp4695
F0.2574846067639487
s(g1460
I5
tp4696
F0.5753547499769285
s(g1468
I5
tp4697
F0.6622820409839835
s(g1476
I5
tp4698
F0.7856781408072188
s(g1484
I5
tp4699
F0.5526834771623851
s(g1492
I5
tp4700
F0.5099857462495653
s(g1500
I5
tp4701
F0.03313835671585597
s(g1508
I5
tp4702
F0.7177305325982748
s(g1516
I5
tp4703
F0.9509900498999999
s(g1524
I5
tp4704
F0.7936142836436553
s(g1532
I5
tp4705
F0.26804671691687404
s(g1540
I5
tp4706
F0.027933752233559327
s(g1548
I5
tp4707
F0.18295651830906087
s(g1556
I5
tp4708
F0.00972354681443988
s(g1564
I5
tp4709
F0.6757290490602831
s(g1572
I5
tp4710
F0.26804671691687404
s(g1580
I5
tp4711
F0.006570483042414605
s(g1588
I4
tp4712
F0.36237201786049694
s(g1596
I5
tp4713
F0.3516092065580223
s(g1604
I5
tp4714
F0.051052568989210935
s(g1612
I5
tp4715
F0.0021532968203584434
s(g1620
I4
tp4716
F4.977568628815082e-244
s(g1628
I5
tp4717
F0.9414801494009999
s(g1636
I5
tp4718
F0.26804671691687404
s(g1644
I5
tp4719
F0.2574846067639487
s(g1652
I5
tp4720
F0.5526834771623851
s(g1660
I5
tp4721
F0.2549097606963092
s(g1668
I4
tp4722
F0.39667780642202527
s(g1676
I5
tp4723
F0.0021532968203584434
s(g1684
I5
tp4724
I1
s(g1692
I5
tp4725
F0.7177305325982748
s(g1700
I5
tp4726
F0.8687458127689781
s(g1708
I5
tp4727
F0.4998370298991989
s(g1716
I5
tp4728
F0.8514577710948754
s(g1724
I5
tp4729
F0.36237201786049694
s(g1732
I5
tp4730
F0.6757290490602831
s(g1740
I5
tp4731
F0.36237201786049694
s(g1748
I3
tp4732
F0.9702989999999999
s(g1756
I5
tp4733
F1.9724027381608275e-243
s(g1764
I5
tp4734
F0.99
s(g1772
I4
tp4735
F0.09237216435585804
s(g1780
I5
tp4736
F0.9414801494009999
s(g1788
I5
tp4737
F0.31480917318095203
s(g1796
I3
tp4738
F0.13000034453500542
s(g1804
I5
tp4739
F0.021510194444071803
s(g1812
I5
tp4740
F0.9414801494009999
s(g1820
I5
tp4741
F0.36237201786049694
s(g1828
I5
tp4742
I1
s(g1836
I5
tp4743
F0.4213342221547681
s(g1844
I5
tp4744
F0.36237201786049694
s(g1852
I5
tp4745
F0.41712087993322045
s(g1860
I3
tp4746
F0.8429431933839266
s(g1868
I5
tp4747
F0.9509900498999999
s(g1876
I5
tp4748
F0.5526834771623851
s(g1884
I5
tp4749
F0.41712087993322045
s(g1892
I5
tp4750
F0.2574846067639487
s(g1900
I4
tp4751
F0.26804671691687404
s(g1908
I5
tp4752
F0.36237201786049694
s(g1916
I5
tp4753
F0.92274469442792
s(g1924
I5
tp4754
F0.6491026283684022
s(g1932
I5
tp4755
F0.032154114383038335
s(g1940
I4
tp4756
F0.7177305325982748
s(g1948
I5
tp4757
F0.7856781408072188
s(g1956
I4
tp4758
F0.09237216435585804
s(g1964
I5
tp4759
I1
s(g1972
I5
tp4760
F0.36237201786049694
s(g1980
I5
tp4761
F0.8953382542587163
s(g1988
I5
tp4762
F0.04663740229999265
s(g1996
I5
tp4763
F0.4998370298991989
s(g2004
I5
tp4764
F0.4658807751697934
s(g2012
I5
tp4765
F0.2790420885850588
s(g2020
I4
tp4766
F0.9509900498999999
s(g2028
I5
tp4767
F0.9702989999999999
s(g2036
I5
tp4768
I1
s(g2044
I3
tp4769
F0.18295651830906087
s(g2052
I5
tp4770
F0.36237201786049694
s(g2060
I4
tp4771
F0.36237201786049694
s(g2068
I5
tp4772
F0.36237201786049694
s(g2076
I4
tp4773
F0.24983705645845267
s(g2084
I5
tp4774
F0.8514577710948754
s(g2092
I5
tp4775
F0.9509900498999999
s(g2100
I5
tp4776
F0.8687458127689781
s(g2108
I5
tp4777
F0.36237201786049694
s(g2116
I5
tp4778
F0.5099857462495653
s(g2124
I5
tp4779
F0.26804671691687404
s(g2132
I5
tp4780
F0.22823046013534068
s(g2140
I3
tp4781
F0.8687458127689781
s(g2148
I5
tp4782
F0.4998370298991989
s(g2156
I5
tp4783
F0.8514577710948754
s(g2164
I4
tp4784
F0.38878391807422696
s(g2172
I5
tp4785
F0.7177305325982748
s(g2180
I4
tp4786
F0.3848960788934847
s(g2188
I5
tp4787
F0.13000034453500542
s(g2196
I4
tp4788
F0.0020684483339820075
s(g2204
I5
tp4789
F0.8775210229989678
s(g2212
I5
tp4790
F0.5811664141181095
s(g2220
I4
tp4791
F0.36237201786049694
s(g2228
I5
tp4792
F0.9801
s(g2236
I5
tp4793
F0.3848960788934847
s(g2244
I5
tp4794
F0.4998370298991989
s(g2252
I3
tp4795
F0.36237201786049694
s(g2260
I5
tp4796
F0.37346428045426927
s(g2268
I5
tp4797
F0.26804671691687404
s(g2276
I5
tp4798
F0.36237201786049694
s(g2284
I5
tp4799
F0.6491026283684022
s(g2292
I5
tp4800
F0.8687458127689781
s(g2300
I5
tp4801
F0.0010871691789690443
s(g2308
I5
tp4802
F0.40882017442254937
s(g2316
I5
tp4803
F0.6111172395328651
s(g2324
I5
tp4804
F0.3516092065580223
s(g2332
I5
tp4805
F0.7177305325982748
s(g2340
I5
tp4806
F0.26804671691687404
s(g2348
I5
tp4807
F0.23999247958413436
s(g2356
I5
tp4808
F0.17574730149117582
s(g2364
I5
tp4809
F0.99
s(g2372
I5
tp4810
F0.36237201786049694
s(g2380
I5
tp4811
F0.03313835671585597
s(g2388
I5
tp4812
F0.26804671691687404
s(g2396
I4
tp4813
F0.36237201786049694
s(g2404
I5
tp4814
F0.00017988583427891656
s(g2412
I5
tp4815
F0.7249803359578534
s(g2420
I5
tp4816
F0.36237201786049694
s(g2428
I5
tp4817
F0.36237201786049694
s(g2436
I3
tp4818
F0.5099857462495653
s(g2444
I4
tp4819
F0.9414801494009999
s(g2452
I5
tp4820
F0.9320653479069899
s(g2460
I5
tp4821
F0.2170448966728076
s(g2468
I5
tp4822
F0.7177305325982748
s(g2476
I5
tp4823
F0.36237201786049694
s(g2484
I5
tp4824
F0.96059601
s(g2492
I5
tp4825
F0.5099857462495653
s(g2500
I5
tp4826
F0.36237201786049694
s(g2508
I5
tp4827
F0.36237201786049694
s(g2516
I5
tp4828
F0.7177305325982748
s(g2524
I3
tp4829
F0.051052568989210935
s(g2532
I5
tp4830
F0.0643291962372672
s(g2540
I5
tp4831
F0.7623427143471035
s(g2548
I5
tp4832
F0.36237201786049694
s(g2556
I5
tp4833
F0.8775210229989678
s(g2564
I5
tp4834
F0.8775210229989678
s(g2572
I5
tp4835
F0.07708584232989277
s(g2580
I5
tp4836
F0.10632818368521123
s(g2588
I5
tp4837
F0.36237201786049694
s(g2596
I5
tp4838
F0.7177305325982748
s(g2604
I5
tp4839
F0.682554595010387
s(g2612
I5
tp4840
F0.36237201786049694
s(g2620
I5
tp4841
F0.1923853128939671
s(g2628
I4
tp4842
F0.37346428045426927
s(g2636
I4
tp4843
F0.36237201786049694
s(g2644
I5
tp4844
F0.7177305325982748
s(g2652
I5
tp4845
F0.22368867397864742
s(g2660
I5
tp4846
F0.36237201786049694
s(g2668
I5
tp4847
F0.9509900498999999
s(g2676
I5
tp4848
F0.92274469442792
s(g2684
I5
tp4849
F0.5099857462495653
s(g2692
I3
tp4850
F0.5099857462495653
s(g2700
I5
tp4851
F0.26804671691687404
s(g2708
I5
tp4852
F0.0643291962372672
s(g2716
I5
tp4853
F0.18295651830906087
s(g2724
I5
tp4854
F0.96059601
s(g2732
I5
tp4855
I1
s(g2740
I5
tp4856
F0.5099857462495653
s(g2748
I5
tp4857
F0.5526834771623851
s(g2756
I5
tp4858
F0.36237201786049694
s(g2764
I4
tp4859
F0.2574846067639487
s(g2772
I5
tp4860
F0.03313835671585597
s(g2780
I5
tp4861
F0.2790420885850588
s(g2788
I5
tp4862
F0.36237201786049694
s(g2796
I5
tp4863
F0.5099857462495653
s(g2804
I5
tp4864
F0.8179069375972307
s(g2812
I5
tp4865
F0.5099857462495653
s(g2820
I5
tp4866
F0.26804671691687404
s(g2828
I4
tp4867
F0.37346428045426927
s(g2836
I4
tp4868
F0.392711028357805
s(g2844
I5
tp4869
F0.07786448720191189
s(g2852
I5
tp4870
F0.4520436502664754
s(g2860
I4
tp4871
F0.36237201786049694
s(g2868
I5
tp4872
F0.8953382542587163
s(g2876
I5
tp4873
F0.2574846067639487
s(g2884
I5
tp4874
F0.36237201786049694
s(g2892
I5
tp4875
F0.4520436502664754
s(g2900
I5
tp4876
F0.9702989999999999
s(g2908
I5
tp4877
F0.8261686238355865
s(g2916
I4
tp4878
F0.5099857462495653
s(g2924
I4
tp4879
F0.17224993019150142
s(g2932
I5
tp4880
F0.005708079630967265
s(g2940
I5
tp4881
F0.5099857462495653
s(g2948
I5
tp4882
F0.20434346174623952
s(g2956
I5
tp4883
F0.14519690621578268
s(g2964
I5
tp4884
F0.3848960788934847
s(g2972
I5
tp4885
F0.09237216435585804
s(g2980
I5
tp4886
F0.8514577710948754
s(g2988
I5
tp4887
F0.9702989999999999
s(g2996
I5
tp4888
F0.5099857462495653
s(g3004
I5
tp4889
F0.9320653479069899
s(g3012
I5
tp4890
F0.0005064912198388059
s(g3020
I5
tp4891
F0.7177305325982748
s(g3028
I5
tp4892
F0.002911039250250783
s(g3036
I3
tp4893
F0.36237201786049694
s(g3044
I5
tp4894
F0.8514577710948754
s(g3052
I5
tp4895
F2.3646443800664055e-06
s(g3060
I5
tp4896
F0.6111172395328651
s(g3068
I5
tp4897
F0.7177305325982748
s(g3076
I4
tp4898
F0.36237201786049694
s(g3084
I5
tp4899
F0.92274469442792
s(g3092
I5
tp4900
F0.7177305325982748
s(g3100
I4
tp4901
F0.9414801494009999
s(g3108
I5
tp4902
F0.8097278682212583
s(g3116
I5
tp4903
F0.36237201786049694
s(g3124
I5
tp4904
F0.03313835671585597
s(g3132
I4
tp4905
F0.8687458127689781
s(g3140
I5
tp4906
F0.6111172395328651
s(g3148
I5
tp4907
F0.7177305325982748
s(g3156
I4
tp4908
F0.5203405226503064
s(g3164
I5
tp4909
F0.7177305325982748
s(g3172
I5
tp4910
F0.7177305325982748
s(g3180
I4
tp4911
F0.000804179447619632
s(g3188
I5
tp4912
F0.36237201786049694
s(g3196
I5
tp4913
F0.36237201786049694
s(g3204
I5
tp4914
F0.8514577710948754
s(g3212
I5
tp4915
F0.16882215658069055
s(g3220
I5
tp4916
F0.36237201786049694
s(g3228
I5
tp4917
F0.40882017442254937
s(g3236
I5
tp4918
F0.5099857462495653
s(g3244
I5
tp4919
F0.26804671691687404
s(g3252
I5
tp4920
F0.6050060671375365
s(g3260
I4
tp4921
F0.9509900498999999
s(g3268
I5
tp4922
F0.7856781408072188
s(g3276
I5
tp4923
F0.96059601
s(g3284
I5
tp4924
F0.7936142836436553
s(g3292
I5
tp4925
F0.3024044356690215
s(g3300
I5
tp4926
F0.19046145976502743
s(g3308
I5
tp4927
F0.04663740229999265
s(g3316
I5
tp4928
F0.26804671691687404
s(g3324
I5
tp4929
F0.3212010745647914
s(g3332
I5
tp4930
F0.6050060671375365
s(g3340
I5
tp4931
F0.7177305325982748
s(g3348
I5
tp4932
F0.37346428045426927
s(g3356
I5
tp4933
F0.7936142836436553
s(g3364
I2
tp4934
F0.99
s(g3372
I5
tp4935
F0.9414801494009999
s(g3380
I5
tp4936
F0.06241855477982412
s(g3388
I5
tp4937
F0.03313835671585597
s(g3396
I5
tp4938
F0.334376856889913
s(g3404
I5
tp4939
F0.4658807751697934
s(g3412
I5
tp4940
F0.9320653479069899
s(g3420
I4
tp4941
F0.09237216435585804
s(g3428
I5
tp4942
F0.18295651830906087
s(g3436
I5
tp4943
F0.41294967113388825
s(g3444
I5
tp4944
F0.0010871691789690443
s(g3452
I5
tp4945
F0.8600583546412883
s(g3460
I5
tp4946
F0.9414801494009999
s(g3468
I5
tp4947
F0.7323033696543974
s(g3476
I5
tp4948
F0.7177305325982748
s(g3484
I4
tp4949
F0.36237201786049694
s(g3492
I4
tp4950
F0.15422195179384465
s(g3500
I5
tp4951
F0.26804671691687404
s(g3508
I4
tp4952
F0.04217803066508773
s(g3516
I5
tp4953
F0.4998370298991989
s(g3524
I3
tp4954
F0.2574846067639487
s(g3532
I5
tp4955
F0.7936142836436553
s(g3540
I5
tp4956
F0.5203405226503064
s(g3548
I3
tp4957
F0.2574846067639487
s(g3556
I5
tp4958
F0.5753547499769285
s(g3564
I5
tp4959
F0.03313835671585597
s(g3572
I5
tp4960
F0.6757290490602831
s(g3580
I5
tp4961
F0.5099857462495653
s(g3588
I4
tp4962
F0.7177305325982748
s(g3596
I4
tp4963
F0.37346428045426927
s(g3604
I5
tp4964
F0.8600583546412883
s(g3612
I5
tp4965
I1
s(g3620
I5
tp4966
F0.5099857462495653
s(g3628
I5
tp4967
F0.8514577710948754
s(g3636
I5
tp4968
F0.36237201786049694
s(g3644
I5
tp4969
F0.34116606151404244
s(g3652
I5
tp4970
F0.36237201786049694
s(g3660
I5
tp4971
F0.17574730149117582
s(g3668
I5
tp4972
F0.7177305325982748
s(g3676
I5
tp4973
F0.9135172474836407
s(g3684
I5
tp4974
F0.7177305325982748
s(g3692
I4
tp4975
F0.11407803532657627
s(g3700
I5
tp4976
F0.8429431933839266
s(g3708
I5
tp4977
F0.38878391807422696
s(g3716
I5
tp4978
F0.7177305325982748
s(g3724
I4
tp4979
F0.36237201786049694
s(g3732
I5
tp4980
F0.7177305325982748
s(g3740
I4
tp4981
F0.9509900498999999
s(g3748
I5
tp4982
F0.26804671691687404
s(g3756
I5
tp4983
F0.18295651830906087
s(g3764
I5
tp4984
F0.07708584232989277
s(g3772
I5
tp4985
F0.8345137614500874
s(g3780
I5
tp4986
F0.8097278682212583
s(g3788
I5
tp4987
F0.8429431933839266
s(g3796
I5
tp4988
I1
s(g3804
I5
tp4989
F0.40882017442254937
s(g3812
I5
tp4990
F0.03664198753113651
s(g3820
I5
tp4991
F0.7936142836436553
s(g3828
I5
tp4992
F0.36237201786049694
s(g3836
I3
tp4993
F0.5099857462495653
s(g3844
I5
tp4994
F0.7177305325982748
s(g3852
I5
tp4995
F0.023546566310951894
s(g3860
I5
tp4996
F0.023546566310951894
s(g3868
I5
tp4997
F0.7623427143471035
s(g3876
I5
tp4998
F0.8345137614500874
s(g3884
I5
tp4999
F0.9509900498999999
s(g3892
I5
tp5000
F0.36237201786049694
s(g3900
I5
tp5001
F0.09053395828517646
s(g3908
I5
tp5002
F0.5753547499769285
s(g3916
I3
tp5003
F0.36237201786049694
s(g3924
I5
tp5004
F0.6426116020847181
s(g3932
I5
tp5005
F0.5309055429551132
s(g3940
I5
tp5006
F0.08962861870232469
s(g3948
I5
tp5007
F0.3848960788934847
s(g3956
I5
tp5008
F0.36237201786049694
s(g3964
I4
tp5009
F0.09237216435585804
s(g3972
I5
tp5010
F0.2904884943099637
s(g3980
I5
tp5011
F0.7177305325982748
s(g3988
I5
tp5012
F0.2574846067639487
s(g3996
I5
tp5013
F0.96059601
s(g4004
I4
tp5014
F0.37346428045426927
s(g4012
I5
tp5015
F0.37346428045426927
stp5016
.