((dp0
(((S'Alaska'
p1
S'Alberta'
p2
S'Brazil'
p3
S'Central America'
p4
tp5
(S'Argentina'
p6
S'Eastern United States'
p7
S'Quebec'
p8
S'Venezuela'
p9
tp10
tp11
g4
tp12
I13
s(((g1
g2
g3
g7
tp13
(g6
S'Greenland'
p14
S'Northwest Territory'
p15
g8
tp16
tp17
g7
tp18
I10
s(((g1
g2
g6
g3
g4
g7
g14
g15
g8
g9
tp19
(S'Ontario'
p20
tp21
tp22
g9
tp23
I9
s(((g1
g2
g6
g3
g4
g7
g14
g15
g20
S'Peru'
p24
g8
g9
tp25
(ttp26
g1
tp27
I10
s(((g1
g2
g3
g4
g7
g14
tp28
(g6
g8
g9
tp29
tp30
g14
tp31
I10
s(((g1
g2
g6
g3
g4
g14
g15
g20
g24
g8
g9
S'Western United States'
p32
tp33
(ttp34
g24
tp35
I12
s(((g1
g2
g3
g4
g14
g15
g20
g24
g8
g9
tp36
(g6
tp37
tp38
g9
tp39
I11
s(((g2
g4
g14
g20
tp40
(g1
g6
g15
g9
tp41
tp42
g20
tp43
I10
s(((g1
g2
g6
g3
g7
g14
g15
g20
tp44
(g4
g8
tp45
tp46
g20
tp47
I10
s(((g1
g2
g3
g7
tp48
(g6
g20
g24
g8
tp49
tp50
g7
tp51
I3
s(((g1
g4
tp52
(g6
g3
g15
g8
g9
tp53
tp54
g4
tp55
I8
s(((g1
g2
g3
g4
g7
g15
tp56
(g6
g8
g9
tp57
tp58
g15
tp59
I10
s(((g1
g3
g4
g7
g14
g15
g20
g24
g8
g9
tp60
(g32
tp61
tp62
g9
tp63
I5
s(((g14
g15
tp64
(g1
g2
g6
g8
g9
tp65
tp66
g15
tp67
I10
s(((g1
g2
g6
g3
g4
g7
g14
g15
g20
g24
g9
g32
tp68
(ttp69
g9
tp70
I10
s(((g1
g6
g3
g4
g7
g15
tp71
(g24
g9
g32
tp72
tp73
g15
tp74
I11
s(((g1
g2
g6
g3
tp75
(g14
g20
g8
g9
tp76
tp77
g3
tp78
I11
s(((g2
g14
tp79
(g1
g6
g4
g20
g9
tp80
tp81
g14
tp82
I10
s(((g1
g2
tp83
(g6
g4
g7
g15
g9
tp84
tp85
g2
tp86
I18
s(((g2
g6
g3
g4
tp87
(g14
g24
g9
g32
tp88
tp89
g4
tp90
I3
s(((g2
g14
g15
g20
tp91
(g1
g6
g8
g9
tp92
tp93
g20
tp94
I10
s(((g1
g2
g6
g3
g4
g15
tp95
(g14
g24
g9
tp96
tp97
g15
tp98
I10
s(((g2
g3
g4
g7
g14
g20
tp99
(g6
g24
g9
tp100
tp101
g20
tp102
I10
s(((g1
g6
tp103
(g4
g15
g20
g9
g32
tp104
tp105
g6
tp106
I8
s(((g1
g2
g6
g3
g7
g14
tp107
(g20
g9
g32
tp108
tp109
g14
tp110
I10
s(((g1
g2
g6
g3
tp111
(g4
g14
g20
g24
tp112
tp113
g3
tp114
I1
s(((g2
g4
g14
g15
g20
g8
tp115
(g1
g6
g9
tp116
tp117
g20
tp118
I16
s(((g1
g2
g3
g4
tp119
(g6
g14
g24
g8
tp120
tp121
g4
tp122
I1
s(((g1
g2
g3
g7
tp123
(g6
g14
g24
g9
tp124
tp125
g7
tp126
I10
s(((g1
g2
g3
g4
g7
g14
tp127
(g6
g20
g24
tp128
tp129
g14
tp130
I5
s(((g1
g2
tp131
(g6
g4
g14
g15
g9
tp132
tp133
g2
tp134
I10
s(((g1
g2
g6
g3
g4
g7
g14
g15
tp135
(g20
g9
tp136
tp137
g15
tp138
I11
s(((g4
g14
g15
g20
tp139
(g1
g2
g6
g9
tp140
tp141
g15
tp142
I10
s(((g1
g2
g6
g4
g14
g15
tp143
(g3
g24
g9
tp144
tp145
g15
tp146
I10
s(((g1
g2
tp147
(g6
g4
g7
g15
g8
tp148
tp149
g2
tp150
I10
s(((g1
g2
g3
g4
g7
g14
g15
g20
tp151
(g6
g9
tp152
tp153
g7
tp154
I10
s(((g1
g2
tp155
(g3
g4
g14
g20
g24
tp156
tp157
g2
tp158
I1
s(((g1
g2
tp159
(g7
g14
g20
g8
g9
tp160
tp161
g2
tp162
I1
s(((g15
g20
tp163
(g1
g6
g4
g8
g9
tp164
tp165
g20
tp166
I10
s(((g1
g6
g3
g4
tp167
(g15
g24
g9
g32
tp168
tp169
g4
tp170
I20
s(((g1
g2
g3
g4
g7
g14
g15
g20
g24
g8
g9
g32
tp171
(ttp172
g24
tp173
I3
s(((g1
g2
g4
g7
g14
g15
tp174
(g6
g3
g8
tp175
tp176
g15
tp177
I10
s(((g1
g2
g3
g7
g14
g15
g20
g24
tp178
(g6
g8
tp179
tp180
g24
tp181
I10
s(((g1
g6
g4
g7
tp182
(g15
g24
g9
g32
tp183
tp184
g7
tp185
I11
s(((g1
g2
g3
g7
tp186
(g6
g15
g20
g8
tp187
tp188
g7
tp189
I10
s(((g1
g3
g4
g7
g14
g15
g20
g24
g8
g9
tp190
(g6
tp191
tp192
g9
tp193
I10
s(((g1
g2
tp194
(g3
g4
g15
g24
g9
tp195
tp196
g2
tp197
I12
s(((g1
g3
tp198
(g6
g4
g20
g24
g9
tp199
tp200
g3
tp201
I10
s(((g1
g6
g3
g4
g7
g14
g15
g24
tp202
(g9
g32
tp203
tp204
g24
tp205
I11
s(((g1
g2
g3
g4
g14
g15
g20
g8
tp206
(g6
g9
tp207
tp208
g3
tp209
I43
s(((g1
g2
g6
g3
g7
g14
tp210
(g4
g20
g24
tp211
tp212
g14
tp213
I1
s(((g1
g2
g3
g4
g7
g14
g15
g9
tp214
(g6
g8
tp215
tp216
g9
tp217
I3
s(((g1
g2
tp218
(g3
g4
g15
g24
g32
tp219
tp220
g2
tp221
I1
s(((g1
g3
g4
g7
g14
g20
tp222
(g6
g24
g9
tp223
tp224
g20
tp225
I10
s(((g1
g2
g6
g3
g4
g7
g14
g15
tp226
(g20
g32
tp227
tp228
g15
tp229
I10
s(((g1
g2
g6
g3
g4
g7
tp230
(g14
g20
g8
tp231
tp232
g4
tp233
I2
s(((g1
g2
g4
g14
g15
g20
tp234
(g6
g3
g9
tp235
tp236
g20
tp237
I10
s(((g1
g2
g6
g3
tp238
(g7
g15
g24
g9
tp239
tp240
g3
tp241
I10
s(((g1
g2
g3
g4
g7
g14
g20
g9
tp242
(g6
g15
tp243
tp244
g9
tp245
I10
s(((g1
g2
g6
g4
tp246
(g3
g14
g20
g9
tp247
tp248
g4
tp249
I9
s(((g1
g2
g3
g4
g7
g15
tp250
(g6
g20
g9
tp251
tp252
g15
tp253
I1
s(((g1
g2
tp254
(g6
g7
g14
g24
g9
tp255
tp256
g2
tp257
I10
s(((g1
g2
g3
g4
tp258
(g6
g7
g15
g9
tp259
tp260
g4
tp261
I10
s(((g2
g3
g4
g7
tp262
(g1
g6
g15
g9
tp263
tp264
g7
tp265
I1
s(((g1
g2
g3
g4
tp266
(g14
g20
g8
g9
tp267
tp268
g4
tp269
I10
s(((g1
g2
g6
g3
tp270
(g7
g20
g8
g9
tp271
tp272
g3
tp273
I10
s(((g1
g2
g6
g3
tp274
(g7
g14
g8
g32
tp275
tp276
g6
tp277
I1
s(((g1
g6
g3
g4
g7
g14
g15
g24
g8
g9
tp278
(g32
tp279
tp280
g9
tp281
I10
s(((g1
g6
g3
g7
tp282
(g14
g24
g9
g32
tp283
tp284
g7
tp285
I10
s(((g1
g2
g6
g3
g4
g7
g14
g20
tp286
(g24
g8
tp287
tp288
g20
tp289
I10
s(((g1
g2
g3
g4
g7
g14
g15
g20
tp290
(g6
g8
tp291
tp292
g15
tp293
I12
s(((g1
g2
g6
g3
g4
g7
g14
g15
g24
g8
tp294
(g32
tp295
tp296
g8
tp297
I10
s(((g1
g2
g3
g4
tp298
(g6
g20
g8
g9
tp299
tp300
g4
tp301
I10
s(((g1
g2
g6
g3
g4
g15
tp302
(g20
g9
g32
tp303
tp304
g15
tp305
I1
s(((g1
g2
g3
g4
g14
g20
tp306
(g6
g7
g8
tp307
tp308
g20
tp309
I1
s(((g1
g2
tp310
(g6
g4
g20
g24
g8
tp311
tp312
g2
tp313
I8
s(((g1
g6
g3
g4
g7
g14
g15
g20
tp314
(g8
g9
tp315
tp316
g20
tp317
I10
s(((g1
g2
g6
g3
g4
g14
g15
g20
g24
g8
g9
g32
tp318
(ttp319
g9
tp320
I23
s(((g2
g6
g3
g4
g7
g14
g15
g20
g24
g8
tp321
(g9
tp322
tp323
g8
tp324
I11
s(((g1
g2
g6
g4
g14
g15
g20
g24
tp325
(g3
g32
tp326
tp327
g24
tp328
I1
s(((g1
g2
tp329
(g3
g14
g20
g9
g32
tp330
tp331
g2
tp332
I10
s(((g2
g4
g14
g20
tp333
(g1
g6
g8
g9
tp334
tp335
g2
tp336
I10
s(((g2
g14
tp337
(g1
g6
g15
g20
g9
tp338
tp339
g14
tp340
I3
s(((g1
g6
g3
g4
tp341
(g14
g20
g8
g32
tp342
tp343
g4
tp344
I10
s(((g1
g2
g6
g3
g4
g14
tp345
(g20
g8
g9
tp346
tp347
g14
tp348
I10
s(((g1
g2
g6
g3
g4
g7
tp349
(g20
g8
g32
tp350
tp351
g4
tp352
I9
s(((g1
g6
g3
g4
g7
g14
g15
g20
g24
g32
tp353
(g9
tp354
tp355
g32
tp356
I1
s(((g1
g2
g3
g4
tp357
(g6
g14
g8
g9
tp358
tp359
g3
tp360
I20
s(((g1
g2
g6
g3
g4
g14
g15
g20
tp361
(g8
g9
tp362
tp363
g20
tp364
I10
s(((g2
g3
g4
g20
tp365
(g1
g6
g8
g9
tp366
tp367
g20
tp368
I1
s(((g2
g3
g4
g7
g14
g15
g20
g24
tp369
(g6
g9
tp370
tp371
g24
tp372
I20
s(((g1
g2
g6
g3
g4
g7
g15
g20
g24
g8
g9
g32
tp373
(ttp374
g9
tp375
I2
s(((g4
g14
g15
g20
tp376
(g1
g6
g8
g9
tp377
tp378
g20
tp379
I10
s(((g1
g2
g6
g3
tp380
(g4
g14
g20
g8
tp381
tp382
g3
tp383
I10
s(((g4
g15
g20
g8
tp384
(g1
g2
g6
g9
tp385
tp386
g20
tp387
I1
s(((g1
g2
g3
g4
tp388
(g6
g14
g24
g9
tp389
tp390
g4
tp391
I10
s(((g1
g3
tp392
(g6
g4
g15
g20
g8
tp393
tp394
g3
tp395
I1
s(((g1
g2
g6
g3
g4
g7
g14
g15
tp396
(g24
g32
tp397
tp398
g15
tp399
I10
s(((g1
g2
g3
g4
tp400
(g6
g15
g8
g9
tp401
tp402
g3
tp403
I8
s(((g1
g2
g6
g3
g4
g7
tp404
(g15
g8
g32
tp405
tp406
g7
tp407
I10
s(((g1
g2
g4
g7
g14
g15
g20
g24
tp408
(g6
g9
tp409
tp410
g24
tp411
I20
s(((g1
g2
g3
g4
g7
g14
g15
g8
tp412
(g6
g9
tp413
tp414
g14
tp415
I3
s(((g2
g3
g4
g8
tp416
(g1
g6
g20
g9
tp417
tp418
g8
tp419
I8
s(((g1
g2
g6
g3
tp420
(g4
g14
g15
g9
tp421
tp422
g3
tp423
I9
s(((g1
g2
g6
g3
g4
g7
g15
g20
g24
g8
tp424
(g14
tp425
tp426
g8
tp427
I10
s(((g2
g4
g14
g20
tp428
(g1
g6
g8
g9
tp429
tp430
g4
tp431
I3291
s(((g1
g2
g4
g14
g20
g8
tp432
(g6
g3
g9
tp433
tp434
g20
tp435
I1
s(((g1
g2
g6
g3
g4
g7
tp436
(g15
g8
g9
tp437
tp438
g7
tp439
I10
s(((g1
g6
g4
g7
g14
g15
g20
g24
tp440
(g8
g32
tp441
tp442
g24
tp443
I1
s(((g1
g2
tp444
(g6
g3
g14
g20
g8
tp445
tp446
g2
tp447
I1
s(((g1
g2
g3
g4
tp448
(g14
g20
g24
g9
tp449
tp450
g4
tp451
I3
s(((g1
g2
tp452
(g3
g14
g20
g24
g32
tp453
tp454
g2
tp455
I2
s(((g1
g2
g3
g7
tp456
(g6
g15
g24
g9
tp457
tp458
g7
tp459
I21
s(((g1
g2
g6
g4
tp460
(g3
g15
g24
g32
tp461
tp462
g4
tp463
I1
s(((g1
g2
g4
g7
tp464
(g6
g14
g8
g9
tp465
tp466
g7
tp467
I1
s(((g1
g2
tp468
(g3
g14
g15
g9
g32
tp469
tp470
g2
tp471
I2
s(((g1
g2
tp472
(g3
g7
g15
g24
g8
tp473
tp474
g2
tp475
I10
s(((g1
g2
g3
g4
g7
g20
tp476
(g6
g24
g9
tp477
tp478
g20
tp479
I20
s(((g1
g2
tp480
(g3
g4
g14
g15
g8
tp481
tp482
g2
tp483
I2
s(((g1
g2
g6
g3
g4
g14
g15
g20
g8
g9
tp484
(g24
tp485
tp486
g9
tp487
I10
s(((g1
g2
g3
g7
tp488
(g6
g20
g24
g9
tp489
tp490
g7
tp491
I21
s(((g1
g2
g3
g4
g7
g14
g20
g8
tp492
(g6
g15
tp493
tp494
g20
tp495
I1
s(((g1
g2
g3
g4
g7
g14
g15
g20
tp496
(g8
g9
tp497
tp498
g20
tp499
I11
s(((g1
g2
g6
g4
g7
g14
tp500
(g20
g8
g9
tp501
tp502
g14
tp503
I9
s(((g1
g2
g4
g14
g20
g8
tp504
(g6
g3
g9
tp505
tp506
g8
tp507
I11
s(((g1
g2
g3
g7
tp508
(g6
g4
g15
g8
tp509
tp510
g7
tp511
I10
s(((g1
g2
g3
g4
g7
g14
g20
g8
tp512
(g6
g15
tp513
tp514
g8
tp515
I11
s(((g1
g2
tp516
(g6
g4
g14
g15
g9
tp517
tp518
g1
tp519
I1
s(((g2
g4
g14
g20
tp520
(g1
g6
g8
g9
tp521
tp522
g14
tp523
I12
s(((g1
g2
g6
g3
g7
g14
g15
g20
g24
g8
g9
g32
tp524
(ttp525
g8
tp526
I4
s(((g2
g6
g3
g4
g7
g14
g15
g24
tp527
(g8
g9
tp528
tp529
g24
tp530
I1
s(((g1
g2
g6
g3
g4
g7
tp531
(g15
g24
g8
tp532
tp533
g7
tp534
I10
s(((g1
g6
g3
g4
g7
g14
g15
g20
g24
g8
tp535
(g9
tp536
tp537
g8
tp538
I10
s(((g1
g2
g6
g3
g7
g14
g15
g20
g24
g8
tp539
(g4
tp540
tp541
g8
tp542
I10
s(((g1
g2
tp543
(g6
g7
g15
g20
g9
tp544
tp545
g2
tp546
I12
s(((g1
g2
g6
g3
g4
g7
g14
g15
g20
g8
tp547
(g24
tp548
tp549
g20
tp550
I7
s(((g4
g14
g15
g8
tp551
(g1
g2
g6
g9
tp552
tp553
g15
tp554
I10
s(((g1
g6
tp555
(g4
g14
g20
g9
g32
tp556
tp557
g6
tp558
I11
s(((g2
g3
g4
g14
tp559
(g1
g6
g8
g9
tp560
tp561
g4
tp562
I11
s(((g1
g4
tp563
(g6
g3
g14
g20
g9
tp564
tp565
g4
tp566
I8
s(((g1
g2
tp567
(g4
g7
g20
g8
g9
tp568
tp569
g2
tp570
I1
s(((g2
g6
g3
g4
tp571
(g15
g20
g9
g32
tp572
tp573
g4
tp574
I1
s(((g1
g2
tp575
(g3
g7
g15
g20
g24
tp576
tp577
g2
tp578
I8
s(((g1
g2
g3
g7
g14
g15
tp579
(g6
g24
g8
tp580
tp581
g15
tp582
I10
s(((g1
g2
g3
g4
g14
g15
g20
g8
tp583
(g6
g7
tp584
tp585
g20
tp586
I2
s(((g1
g2
g6
g4
tp587
(g14
g15
g24
g9
tp588
tp589
g4
tp590
I7
s(((g1
g6
g3
g4
g7
g14
g15
g20
g24
g9
tp591
(g8
tp592
tp593
g9
tp594
I8
s(((g1
g2
g6
g3
g7
g14
g15
g20
tp595
(g9
g32
tp596
tp597
g20
tp598
I11
s(((g1
g2
g6
g4
g14
g15
g20
g24
g8
g32
tp599
(g3
tp600
tp601
g32
tp602
I1
s(((g1
g6
g3
g4
g7
g14
tp603
(g24
g8
g9
tp604
tp605
g14
tp606
I8
s(((g1
g2
g6
g3
g4
g14
g15
g20
g8
g32
tp607
(g24
tp608
tp609
g32
tp610
I2
s(((g1
g2
g3
g7
g14
g15
tp611
(g6
g24
g9
tp612
tp613
g15
tp614
I11
s(((g1
g2
g6
g3
tp615
(g7
g15
g8
g32
tp616
tp617
g3
tp618
I10
s(((g1
g2
g6
g3
g4
g14
g15
g24
tp619
(g20
g9
tp620
tp621
g24
tp622
I10
s(((g1
g2
g3
g4
g14
g20
tp623
(g6
g15
g9
tp624
tp625
g20
tp626
I13
s(((g1
g2
g6
g3
tp627
(g4
g14
g24
g9
tp628
tp629
g3
tp630
I1
s(((g1
g2
tp631
(g6
g3
g4
g8
g9
tp632
tp633
g2
tp634
I10
s(((g1
g2
tp635
(g6
g3
g7
g20
g8
tp636
tp637
g2
tp638
I1
s(((g1
g2
g6
g4
g7
g14
g15
g20
g24
g8
tp639
(g9
tp640
tp641
g8
tp642
I9
s(((g2
g3
g4
g7
g14
g15
tp643
(g1
g6
g20
tp644
tp645
g15
tp646
I1
s(((g4
g14
g20
g8
tp647
(g1
g2
g6
g9
tp648
tp649
g8
tp650
I10
s(((g1
g2
tp651
(g3
g14
g20
g8
g9
tp652
tp653
g2
tp654
I10
s(((g2
g3
tp655
(g1
g6
g7
g15
g9
tp656
tp657
g3
tp658
I1
s(((g1
g6
g3
g4
g7
g14
tp659
(g20
g8
g9
tp660
tp661
g14
tp662
I10
s(((g1
g2
tp663
(g3
g14
g15
g24
g9
tp664
tp665
g2
tp666
I11
s(((g1
g2
g6
g3
g7
g14
g15
g20
tp667
(g4
g9
tp668
tp669
g20
tp670
I11
s(((g1
g2
g3
g4
g7
g15
tp671
(g6
g14
g9
tp672
tp673
g7
tp674
I3
s(((g1
g2
g6
g3
tp675
(g7
g15
g24
g8
tp676
tp677
g3
tp678
I10
s(((g1
g2
g3
g4
tp679
(g6
g14
g15
g9
tp680
tp681
g4
tp682
I10
s(((g2
g3
g4
g7
g14
g15
tp683
(g1
g6
g9
tp684
tp685
g15
tp686
I1
s(((g1
g2
g3
g4
g7
g15
tp687
(g20
g8
g9
tp688
tp689
g15
tp690
I1
s(((g1
g2
g3
g14
g15
g8
tp691
(g6
g4
g9
tp692
tp693
g8
tp694
I9
s(((g2
g3
g4
g7
g14
g15
g20
g24
g8
g9
tp695
(g6
tp696
tp697
g9
tp698
I10
s(((g1
g6
g3
g4
g7
g15
tp699
(g20
g9
g32
tp700
tp701
g15
tp702
I8
s(((g1
g3
tp703
(g2
g6
g7
g15
g8
tp704
tp705
g3
tp706
I10
s(((g1
g2
g3
g4
g7
g14
g15
g20
g24
g9
tp707
(g6
tp708
tp709
g9
tp710
I95
s(((g1
g2
tp711
(g3
g7
g15
g8
g32
tp712
tp713
g2
tp714
I10
s(((g1
g2
g4
g15
g20
g8
tp715
(g6
g3
g9
tp716
tp717
g20
tp718
I1
s(((g1
g2
g3
g4
g7
g14
g15
g20
g24
g8
g9
g32
tp719
(ttp720
g9
tp721
I11
s(((g1
g2
g6
g3
g4
g7
g14
g15
g20
g8
tp722
(g32
tp723
tp724
g8
tp725
I10
s(((g2
g3
g4
g14
g20
g8
tp726
(g1
g6
g9
tp727
tp728
g8
tp729
I10
s(((g1
g2
g3
g4
g14
g15
g20
g24
tp730
(g6
g9
tp731
tp732
g24
tp733
I20
s(((g1
g2
tp734
(g3
g4
g14
g20
g9
tp735
tp736
g1
tp737
I1
s(((g1
g2
g6
g4
g7
g14
g15
g20
g24
g8
tp738
(g32
tp739
tp740
g8
tp741
I10
s(((g1
g3
tp742
(g6
g4
g14
g8
g9
tp743
tp744
g3
tp745
I7
s(((g3
g4
g14
g15
g20
g8
tp746
(g1
g6
g9
tp747
tp748
g8
tp749
I10
s(((g1
g2
g6
g3
g4
g7
tp750
(g14
g8
g9
tp751
tp752
g7
tp753
I4
s(((g1
g2
g3
g4
tp754
(g6
g14
g20
g8
tp755
tp756
g4
tp757
I11
s(((g1
g2
g6
g3
g4
g7
g14
g20
tp758
(g15
g8
tp759
tp760
g20
tp761
I10
s(((g2
g14
tp762
(g1
g6
g15
g8
g9
tp763
tp764
g14
tp765
I4
s(((g1
g2
g6
g3
g4
g14
g15
g20
tp766
(g9
g32
tp767
tp768
g20
tp769
I11
s(((g1
g6
tp770
(g3
g4
g14
g20
g8
tp771
tp772
g6
tp773
I9
s(((g1
g2
tp774
(g6
g7
g14
g8
g32
tp775
tp776
g2
tp777
I1
s(((g1
g2
g3
g4
tp778
(g6
g15
g20
g9
tp779
tp780
g3
tp781
I10
s(((g1
g2
tp782
(g3
g7
g15
g24
g9
tp783
tp784
g2
tp785
I10
s(((g1
g2
g3
g4
tp786
(g14
g24
g8
g9
tp787
tp788
g4
tp789
I9
s(((g4
g15
tp790
(g1
g6
g14
g8
g9
tp791
tp792
g15
tp793
I10
s(((g1
g2
g6
g3
tp794
(g4
g14
g20
g8
tp795
tp796
g6
tp797
I2
s(((g1
g2
g6
g3
g4
g7
g14
g15
tp798
(g24
g8
tp799
tp800
g14
tp801
I2
s(((g1
g2
g4
g7
g15
g20
tp802
(g6
g14
g9
tp803
tp804
g20
tp805
I5
s(((g1
g2
g6
g4
tp806
(g3
g14
g20
g8
tp807
tp808
g4
tp809
I10
s(((g1
g6
g3
g7
tp810
(g15
g24
g9
g32
tp811
tp812
g7
tp813
I11
s(((g4
g15
g20
g8
tp814
(g1
g2
g6
g9
tp815
tp816
g8
tp817
I10
s(((g1
g2
g6
g3
g7
g14
g15
g20
tp818
(g4
g8
tp819
tp820
g15
tp821
I1
s(((g1
g3
tp822
(g6
g4
g14
g20
g8
tp823
tp824
g3
tp825
I1
s(((g1
g2
g6
g3
g4
g7
g14
g15
tp826
(g8
g32
tp827
tp828
g7
tp829
I1
s(((g1
g2
g3
g14
tp830
(g6
g15
g8
g9
tp831
tp832
g14
tp833
I3
s(((g1
g2
g4
g7
tp834
(g6
g14
g15
g9
tp835
tp836
g7
tp837
I9
s(((g4
g14
g15
g20
tp838
(g1
g6
g8
g9
tp839
tp840
g15
tp841
I10
s(((g1
g2
tp842
(g6
g7
g14
g15
g8
tp843
tp844
g2
tp845
I10
s(((g1
g2
g3
g4
g7
g14
tp846
(g20
g9
g32
tp847
tp848
g14
tp849
I1
s(((g1
g2
g4
g14
tp850
(g6
g3
g8
g9
tp851
tp852
g2
tp853
I1
s(((g1
g2
g4
g7
g14
g15
tp854
(g6
g8
g9
tp855
tp856
g15
tp857
I11
s(((g1
g2
tp858
(g6
g7
g14
g20
g8
tp859
tp860
g2
tp861
I1
s(((g1
g2
g3
g7
tp862
(g6
g4
g15
g20
tp863
tp864
g7
tp865
I1
s(((g1
g2
g3
g4
g14
g15
g20
g24
g8
g9
tp866
(g6
tp867
tp868
g20
tp869
I2
s(((g1
g2
g6
g3
g4
g14
tp870
(g20
g24
g9
tp871
tp872
g14
tp873
I10
s(((g1
g3
g4
g7
tp874
(g6
g20
g24
g9
tp875
tp876
g7
tp877
I10
s(((g1
g2
g6
g3
tp878
(g14
g24
g9
g32
tp879
tp880
g3
tp881
I3
s(((g1
g2
g6
g3
g7
g14
g15
g24
tp882
(g8
g9
tp883
tp884
g24
tp885
I3
s(((g2
g6
g3
g4
g7
g14
g15
g20
g8
g9
tp886
(g32
tp887
tp888
g9
tp889
I1
s(((g2
g4
g14
g8
tp890
(g1
g6
g15
g9
tp891
tp892
g8
tp893
I1
s(((g2
g3
g4
g7
tp894
(g6
g20
g24
g9
tp895
tp896
g7
tp897
I10
s(((g1
g2
g6
g3
g4
g15
g20
g24
g8
g32
tp898
(g14
tp899
tp900
g32
tp901
I1
s(((g1
g2
tp902
(g6
g4
g15
g24
g9
tp903
tp904
g2
tp905
I10
s(((g1
g3
tp906
(g7
g15
g24
g9
g32
tp907
tp908
g3
tp909
I6
s(((g1
g6
tp910
(g3
g14
g20
g9
g32
tp911
tp912
g6
tp913
I10
s(((g1
g2
g6
g3
g4
g7
g14
g15
g20
g24
g8
g32
tp914
(ttp915
g32
tp916
I10
s(((g2
g4
tp917
(g1
g6
g15
g20
g9
tp918
tp919
g4
tp920
I18
s(((g1
g2
g6
g3
g4
g7
tp921
(g14
g8
g32
tp922
tp923
g7
tp924
I10
s(((g2
g20
tp925
(g1
g6
g4
g8
g9
tp926
tp927
g20
tp928
I17
s(((g1
g2
g6
g3
g4
g7
g14
g15
g20
g24
tp929
(g32
tp930
tp931
g24
tp932
I10
s(((g1
g2
tp933
(g3
g4
g14
g20
g9
tp934
tp935
g2
tp936
I11
s(((g1
g2
g3
g4
g7
g14
g15
g20
g24
g8
tp937
(g32
tp938
tp939
g8
tp940
I10
s(((g1
g2
g6
g3
g4
g7
g14
g20
g24
g8
tp941
(g32
tp942
tp943
g8
tp944
I10
s(((g1
g2
g6
g3
g7
g14
g15
g20
g24
g8
g9
g32
tp945
(ttp946
g9
tp947
I21
s(((g1
g2
g3
g4
tp948
(g6
g20
g24
g9
tp949
tp950
g4
tp951
I20
s(((g1
g2
g4
g7
g14
g15
tp952
(g6
g24
g9
tp953
tp954
g15
tp955
I10
s(((g1
g2
g6
g3
g4
g7
g14
g15
tp956
(g20
g24
tp957
tp958
g15
tp959
I8
s(((g1
g2
g3
g4
g7
g14
g15
g8
tp960
(g6
g20
tp961
tp962
g8
tp963
I12
s(((g2
g3
tp964
(g6
g7
g20
g8
g9
tp965
tp966
g3
tp967
I1
s(((g1
g2
tp968
(g6
g7
g15
g24
g8
tp969
tp970
g2
tp971
I10
s(((g1
g2
g3
g4
g7
g14
g15
g8
tp972
(g6
g9
tp973
tp974
g15
tp975
I15
s(((g1
g2
g4
g7
g14
g15
tp976
(g6
g3
g9
tp977
tp978
g15
tp979
I2
s(((g2
g3
g4
g7
tp980
(g1
g6
g15
g8
tp981
tp982
g7
tp983
I10
s(((g1
g2
g4
g7
tp984
(g6
g15
g24
g9
tp985
tp986
g7
tp987
I10
s(((g1
g2
g3
g4
g7
g14
g15
g20
g8
g9
tp988
(g6
tp989
tp990
g3
tp991
I13
s(((g1
g2
g3
g4
g15
g20
tp992
(g6
g14
g9
tp993
tp994
g20
tp995
I10
s(((g1
g2
g3
g7
g14
g15
g20
g8
tp996
(g6
g4
tp997
tp998
g8
tp999
I10
s(((g1
g2
tp1000
(g3
g4
g14
g24
g8
tp1001
tp1002
g2
tp1003
I1
s(((g2
g6
g3
g4
g7
g14
g15
g20
tp1004
(g9
g32
tp1005
tp1006
g20
tp1007
I11
s(((g1
g2
g4
g7
g14
g20
tp1008
(g6
g3
g8
tp1009
tp1010
g20
tp1011
I1
s(((g1
g6
g4
g7
g14
g15
g20
g8
tp1012
(g9
g32
tp1013
tp1014
g8
tp1015
I1
s(((g1
g3
tp1016
(g2
g6
g14
g15
g9
tp1017
tp1018
g3
tp1019
I1
s(((g1
g2
g6
g3
g4
g7
g14
g15
tp1020
(g8
g32
tp1021
tp1022
g14
tp1023
I10
s(((g2
g3
g4
g7
g14
g15
g20
g8
tp1024
(g1
g6
tp1025
tp1026
g8
tp1027
I10
s(((g1
g2
g3
g4
g7
g14
g15
g20
g8
g9
tp1028
(g24
tp1029
tp1030
g9
tp1031
I3
s(((g1
g2
g6
g3
g4
g14
g15
g20
g24
g32
tp1032
(g9
tp1033
tp1034
g32
tp1035
I10
s(((g1
g2
g3
g4
g7
g14
g15
g20
g24
g32
tp1036
(g8
tp1037
tp1038
g32
tp1039
I1
s(((g1
g2
g4
g15
tp1040
(g6
g3
g8
g9
tp1041
tp1042
g15
tp1043
I10
s(((g1
g2
g4
g7
g14
g15
g20
g8
tp1044
(g6
g9
tp1045
tp1046
g15
tp1047
I10
s(((g1
g2
g3
g4
g14
g20
tp1048
(g6
g24
g9
tp1049
tp1050
g20
tp1051
I10
s(((g1
g6
tp1052
(g3
g4
g14
g20
g9
tp1053
tp1054
g6
tp1055
I7
s(((g2
g3
g4
g7
g14
g15
tp1056
(g6
g8
g9
tp1057
tp1058
g15
tp1059
I10
s(((g2
g6
tp1060
(g4
g14
g24
g9
g32
tp1061
tp1062
g6
tp1063
I3
s(((g2
g4
g14
g15
g20
g8
tp1064
(g1
g6
g9
tp1065
tp1066
g14
tp1067
I12
s(((g1
g2
tp1068
(g4
g14
g20
g24
g9
tp1069
tp1070
g2
tp1071
I4
s(((g1
g2
tp1072
(g4
g14
g20
g8
g9
tp1073
tp1074
g1
tp1075
I8
s(((g1
g2
g6
g3
g4
g7
g14
g15
tp1076
(g20
g8
tp1077
tp1078
g15
tp1079
I10
s(((g1
g3
tp1080
(g4
g15
g24
g9
g32
tp1081
tp1082
g3
tp1083
I10
s(((g2
g3
g4
g7
tp1084
(g1
g6
g15
g20
tp1085
tp1086
g7
tp1087
I1
s(((g1
g2
g4
g7
g14
g15
g20
g8
tp1088
(g6
g9
tp1089
tp1090
g20
tp1091
I10
s(((g1
g2
g6
g3
g4
g14
g20
g24
g8
g9
tp1092
(g15
tp1093
tp1094
g9
tp1095
I10
s(((g2
g6
g3
g4
g7
g14
tp1096
(g20
g9
g32
tp1097
tp1098
g14
tp1099
I10
s(((g1
g2
tp1100
(g6
g3
g14
g15
g9
tp1101
tp1102
g2
tp1103
I3
s(((g1
g3
g4
g7
tp1104
(g15
g24
g9
g32
tp1105
tp1106
g7
tp1107
I5
s(((g1
g2
g6
g3
g4
g7
g14
g15
g24
g8
g9
g32
tp1108
(ttp1109
g32
tp1110
I10
s(((g1
g2
g3
g7
g14
g15
g20
g8
tp1111
(g6
g24
tp1112
tp1113
g8
tp1114
I3
s(((g1
g2
g3
g4
tp1115
(g6
g14
g15
g20
tp1116
tp1117
g4
tp1118
I3
s(((g1
g2
g3
g4
g14
g20
tp1119
(g6
g24
g8
tp1120
tp1121
g20
tp1122
I8
s(((g1
g3
g4
g7
g14
g15
tp1123
(g2
g6
g8
tp1124
tp1125
g15
tp1126
I10
s(((g1
g2
tp1127
(g6
g4
g7
g14
g8
tp1128
tp1129
g2
tp1130
I2
s(((g2
g3
g4
g14
g15
g20
tp1131
(g1
g6
g9
tp1132
tp1133
g20
tp1134
I10
s(((g1
g2
g6
g3
g4
g14
g15
g20
g24
g8
g9
g32
tp1135
(ttp1136
g20
tp1137
I10
s(((g1
g2
g6
g3
g4
g7
tp1138
(g15
g20
g32
tp1139
tp1140
g7
tp1141
I10
s(((g2
g4
g14
g15
g20
g8
tp1142
(g1
g6
g9
tp1143
tp1144
g15
tp1145
I12
s(((g1
g2
g6
g3
g4
g14
g15
g20
g24
g9
tp1146
(g8
tp1147
tp1148
g24
tp1149
I1
s(((g1
g2
g3
g4
g7
g15
tp1150
(g6
g20
g8
tp1151
tp1152
g7
tp1153
I1
s(((g1
g2
g6
g4
g7
g14
g15
g20
g24
g8
g9
g32
tp1154
(ttp1155
g32
tp1156
I10
s(((g1
g2
tp1157
(g6
g7
g14
g15
g9
tp1158
tp1159
g2
tp1160
I15
s(((g2
g6
g3
g4
g7
g14
tp1161
(g24
g8
g9
tp1162
tp1163
g14
tp1164
I1
s(((g2
g3
g4
g15
tp1165
(g1
g6
g20
g9
tp1166
tp1167
g15
tp1168
I10
s(((g1
g2
g6
g3
g4
g7
g14
g15
g20
g24
tp1169
(g9
tp1170
tp1171
g20
tp1172
I8
s(((g1
g2
g6
g3
g4
g14
g15
g20
g24
g8
g9
g32
tp1173
(ttp1174
g8
tp1175
I11
s(((g1
g6
g4
g7
g14
g15
tp1176
(g8
g9
g32
tp1177
tp1178
g15
tp1179
I1
s(((g1
g2
tp1180
(g6
g3
g14
g20
g9
tp1181
tp1182
g2
tp1183
I10
s(((g1
g3
g4
g7
g14
g15
g20
g24
tp1184
(g6
g9
tp1185
tp1186
g24
tp1187
I20
s(((g2
g6
g3
g4
g7
g15
tp1188
(g20
g9
g32
tp1189
tp1190
g15
tp1191
I1
s(((g1
g2
g6
g3
tp1192
(g4
g15
g20
g8
tp1193
tp1194
g3
tp1195
I10
s(((g1
g2
tp1196
(g6
g4
g7
g15
g20
tp1197
tp1198
g2
tp1199
I3
s(((g1
g2
g3
g4
g7
g14
g8
g9
tp1200
(g6
g15
tp1201
tp1202
g9
tp1203
I10
s(((g1
g2
tp1204
(g3
g7
g14
g24
g8
tp1205
tp1206
g2
tp1207
I2
s(((g1
g2
g6
g4
g7
g14
g15
g20
g24
g8
tp1208
(g3
tp1209
tp1210
g8
tp1211
I13
s(((g1
g2
tp1212
(g3
g7
g20
g8
g9
tp1213
tp1214
g2
tp1215
I10
s(((g1
g6
tp1216
(g4
g15
g24
g9
g32
tp1217
tp1218
g6
tp1219
I11
s(((g1
g2
g6
g3
g4
g15
tp1220
(g14
g24
g9
tp1221
tp1222
g4
tp1223
I1
s(((g1
g2
tp1224
(g3
g7
g20
g24
g9
tp1225
tp1226
g2
tp1227
I2
s(((g1
g2
g3
g4
g7
g20
tp1228
(g6
g15
g9
tp1229
tp1230
g20
tp1231
I8
s(((g1
g2
g6
g3
g4
g14
tp1232
(g15
g20
g9
tp1233
tp1234
g14
tp1235
I1
s(((g1
g6
tp1236
(g3
g14
g20
g8
g9
tp1237
tp1238
g6
tp1239
I1
s(((g2
g4
g14
g15
tp1240
(g1
g6
g20
g9
tp1241
tp1242
g15
tp1243
I10
s(((g1
g2
g6
g3
g7
g14
tp1244
(g4
g15
g9
tp1245
tp1246
g14
tp1247
I9
s(((g1
g2
g6
g3
g7
g14
tp1248
(g20
g8
g9
tp1249
tp1250
g14
tp1251
I11
s(((g2
g3
g4
g7
tp1252
(g6
g20
g8
g9
tp1253
tp1254
g7
tp1255
I1
s(((g1
g6
g3
g4
tp1256
(g14
g20
g9
g32
tp1257
tp1258
g4
tp1259
I12
s(((g1
g2
g6
g3
g7
g14
g15
g20
g24
g8
tp1260
(g9
tp1261
tp1262
g8
tp1263
I10
s(((g1
g2
g3
g4
tp1264
(g6
g15
g20
g9
tp1265
tp1266
g4
tp1267
I10
s(((g1
g2
g3
g14
tp1268
(g6
g15
g24
g8
tp1269
tp1270
g14
tp1271
I1
s(((g1
g2
g3
g4
tp1272
(g14
g20
g9
g32
tp1273
tp1274
g4
tp1275
I1
s(((g1
g2
g6
g4
g7
g14
tp1276
(g20
g8
g32
tp1277
tp1278
g14
tp1279
I10
s(((g1
g2
tp1280
(g6
g4
g7
g14
g9
tp1281
tp1282
g2
tp1283
I3
s(((g2
g4
tp1284
(g1
g6
g14
g8
g9
tp1285
tp1286
g4
tp1287
I15
s(((g1
g2
g3
g4
tp1288
(g6
g14
g15
g8
tp1289
tp1290
g4
tp1291
I10
s(((g1
g2
g6
g3
g4
g7
g14
g15
tp1292
(g8
g9
tp1293
tp1294
g14
tp1295
I3
s(((g1
g2
g3
g4
g14
g15
tp1296
(g6
g24
g9
tp1297
tp1298
g15
tp1299
I10
s(((g3
g4
tp1300
(g1
g6
g15
g8
g9
tp1301
tp1302
g4
tp1303
I10
s(((g1
g2
g6
g4
tp1304
(g7
g14
g20
g8
tp1305
tp1306
g4
tp1307
I9
s(((g2
g3
tp1308
(g1
g6
g7
g15
g20
tp1309
tp1310
g3
tp1311
I1
s(((g2
g3
g4
g14
tp1312
(g1
g6
g20
g9
tp1313
tp1314
g14
tp1315
I10
s(((g2
g3
g4
g7
g14
g15
g20
g8
tp1316
(g1
g6
tp1317
tp1318
g20
tp1319
I1
s(((g1
g2
g3
g7
g14
g15
g20
g24
g8
g9
tp1320
(g6
tp1321
tp1322
g24
tp1323
I3
s(((g1
g2
g6
g3
g4
g7
tp1324
(g15
g24
g32
tp1325
tp1326
g7
tp1327
I10
s(((g1
g2
g6
g3
g4
g7
g14
g15
g20
g24
tp1328
(g8
tp1329
tp1330
g24
tp1331
I10
s(((g1
g2
g3
g7
g14
g15
g20
g8
tp1332
(g6
g4
tp1333
tp1334
g20
tp1335
I1
s(((g1
g6
g3
g4
g14
g15
g20
g24
g8
g9
tp1336
(g32
tp1337
tp1338
g9
tp1339
I10
s(((g4
g14
g15
g8
tp1340
(g1
g2
g6
g9
tp1341
tp1342
g4
tp1343
I2
s(((g1
g2
tp1344
(g3
g14
g20
g24
g9
tp1345
tp1346
g2
tp1347
I10
s(((g1
g2
g3
g4
g14
g20
tp1348
(g6
g15
g9
tp1349
tp1350
g14
tp1351
I1
s(((g1
g2
g4
g7
tp1352
(g6
g15
g20
g9
tp1353
tp1354
g4
tp1355
I10
s(((g1
g2
g6
g3
g7
g14
g15
g20
g24
g9
tp1356
(g4
tp1357
tp1358
g9
tp1359
I10
s(((g1
g2
tp1360
(g6
g7
g20
g24
g9
tp1361
tp1362
g2
tp1363
I20
s(((g1
g6
tp1364
(g7
g14
g20
g9
g32
tp1365
tp1366
g6
tp1367
I1
s(((g1
g2
g6
g4
g14
g15
g20
g24
tp1368
(g3
g9
tp1369
tp1370
g24
tp1371
I10
s(((g1
g2
g3
g4
g7
g15
tp1372
(g6
g14
g8
tp1373
tp1374
g7
tp1375
I2
s(((g2
g4
tp1376
(g1
g6
g14
g15
g9
tp1377
tp1378
g4
tp1379
I2
s(((g1
g2
tp1380
(g6
g14
g15
g8
g9
tp1381
tp1382
g2
tp1383
I10
s(((g1
g2
tp1384
(g3
g14
g20
g8
g32
tp1385
tp1386
g2
tp1387
I10
s(((g1
g6
tp1388
(g4
g14
g24
g8
g9
tp1389
tp1390
g6
tp1391
I8
s(((g1
g3
g4
g14
g15
g20
tp1392
(g2
g6
g9
tp1393
tp1394
g20
tp1395
I11
s(((g1
g3
tp1396
(g2
g6
g14
g20
g9
tp1397
tp1398
g3
tp1399
I10
s(((g1
g6
g3
g7
g14
g15
g20
g24
tp1400
(g9
g32
tp1401
tp1402
g24
tp1403
I10
s(((g1
g2
tp1404
(g4
g14
g20
g8
g32
tp1405
tp1406
g1
tp1407
I10
s(((g1
g6
tp1408
(g4
g14
g20
g8
g32
tp1409
tp1410
g6
tp1411
I10
s(((g1
g2
g3
g4
g7
g14
g15
g20
g24
g9
tp1412
(g6
tp1413
tp1414
g24
tp1415
I4
s(((g1
g2
g4
g14
tp1416
(g6
g3
g8
g9
tp1417
tp1418
g4
tp1419
I10
s(((g4
g14
tp1420
(g1
g2
g6
g8
g9
tp1421
tp1422
g14
tp1423
I20
s(((g2
g3
g4
g7
g14
g20
tp1424
(g6
g8
g9
tp1425
tp1426
g20
tp1427
I1
s(((g1
g2
g6
g3
tp1428
(g14
g20
g8
g32
tp1429
tp1430
g6
tp1431
I10
s(((g1
g2
g3
g4
tp1432
(g6
g14
g20
g9
tp1433
tp1434
g3
tp1435
I7
s(((g1
g2
g6
g3
g4
g7
tp1436
(g20
g24
g9
tp1437
tp1438
g7
tp1439
I2
s(((g1
g2
tp1440
(g6
g14
g20
g8
g32
tp1441
tp1442
g2
tp1443
I10
s(((g1
g6
g3
g4
g7
g14
g15
g20
g24
g8
g9
g32
tp1444
(ttp1445
g9
tp1446
I11
s(((g1
g2
g3
g4
g14
g15
g20
g8
tp1447
(g6
g9
tp1448
tp1449
g8
tp1450
I18
s(((g1
g2
g3
g7
g14
g15
tp1451
(g6
g4
g20
tp1452
tp1453
g15
tp1454
I1
s(((g1
g2
g3
g4
g14
g15
g20
g24
g8
g9
tp1455
(g6
tp1456
tp1457
g24
tp1458
I10
s(((g1
g2
tp1459
(g6
g7
g20
g8
g32
tp1460
tp1461
g2
tp1462
I1
s(((g1
g2
g4
g7
g14
g15
g20
g8
tp1463
(g6
g3
tp1464
tp1465
g8
tp1466
I11
s(((g1
g2
tp1467
(g6
g3
g14
g15
g8
tp1468
tp1469
g2
tp1470
I1
s(((g1
g2
g6
g3
g4
g7
g14
g15
tp1471
(g8
g9
tp1472
tp1473
g15
tp1474
I10
s(((g1
g2
tp1475
(g4
g7
g14
g20
g8
tp1476
tp1477
g2
tp1478
I9
s(((g1
g2
g6
g3
g4
g7
g14
g15
g20
g24
g8
g9
tp1479
(ttp1480
g6
tp1481
I4360
s(((g1
g3
tp1482
(g2
g6
g15
g20
g9
tp1483
tp1484
g3
tp1485
I12
s(((g2
g6
g3
g4
tp1486
(g1
g14
g20
g8
tp1487
tp1488
g4
tp1489
I10
s(((g1
g2
g6
g3
g4
g7
g14
g15
g20
g32
tp1490
(g8
tp1491
tp1492
g32
tp1493
I1
s(((g2
g6
g3
g4
g7
g14
tp1494
(g24
g9
g32
tp1495
tp1496
g14
tp1497
I3
s(((g1
g2
g6
g3
g4
g14
tp1498
(g7
g8
g32
tp1499
tp1500
g14
tp1501
I1
s(((g1
g2
g6
g3
g4
g7
g14
g15
g20
g24
g8
g9
tp1502
(ttp1503
g24
tp1504
I12
s(((g1
g2
g3
g7
tp1505
(g6
g4
g20
g9
tp1506
tp1507
g7
tp1508
I4
s(((g1
g2
g6
g3
g4
g7
tp1509
(g20
g8
g32
tp1510
tp1511
g7
tp1512
I11
s(((g1
g2
g6
g3
g4
g7
g15
g20
tp1513
(g14
g8
tp1514
tp1515
g20
tp1516
I10
s(((g1
g6
g3
g4
g7
g14
tp1517
(g24
g9
g32
tp1518
tp1519
g14
tp1520
I20
s(((g4
g15
tp1521
(g1
g2
g6
g20
g9
tp1522
tp1523
g15
tp1524
I1
s(((g2
g3
g4
g15
g20
g8
tp1525
(g1
g6
g9
tp1526
tp1527
g8
tp1528
I11
s(((g1
g2
g6
g3
g7
g15
tp1529
(g20
g9
g32
tp1530
tp1531
g15
tp1532
I1
s(((g1
g2
g6
g3
g4
g14
g15
g20
g24
g9
tp1533
(g8
tp1534
tp1535
g9
tp1536
I10
s(((g2
g6
g3
g4
g7
g14
g15
g20
g24
g8
g9
g32
tp1537
(ttp1538
g9
tp1539
I14
s(((g1
g2
g6
g3
g4
g7
tp1540
(g14
g20
g8
tp1541
tp1542
g7
tp1543
I10
s(((g2
g4
g14
g15
tp1544
(g1
g6
g20
g9
tp1545
tp1546
g14
tp1547
I2
s(((g1
g2
g6
g3
g4
g7
g14
g15
g20
g8
tp1548
(g9
tp1549
tp1550
g8
tp1551
I10
s(((g2
g4
tp1552
(g1
g6
g14
g20
g9
tp1553
tp1554
g4
tp1555
I11
s(((g1
g2
g6
g3
g4
g7
g14
g20
g24
g8
tp1556
(g15
tp1557
tp1558
g8
tp1559
I10
s(((g1
g2
g3
g15
g20
g8
tp1560
(g6
g14
g9
tp1561
tp1562
g20
tp1563
I2
s(((g2
g3
tp1564
(g6
g4
g14
g20
g9
tp1565
tp1566
g3
tp1567
I2
s(((g1
g6
g4
g7
tp1568
(g20
g24
g9
g32
tp1569
tp1570
g7
tp1571
I1
s(((g1
g2
g4
g7
tp1572
(g6
g15
g20
g9
tp1573
tp1574
g7
tp1575
I10
s(((g1
g2
tp1576
(g3
g7
g15
g20
g9
tp1577
tp1578
g2
tp1579
I10
s(((g1
g2
g6
g3
tp1580
(g14
g15
g24
g9
tp1581
tp1582
g3
tp1583
I11
s(((g1
g2
tp1584
(g3
g4
g20
g8
g32
tp1585
tp1586
g2
tp1587
I9
s(((g1
g2
tp1588
(g6
g4
g14
g24
g9
tp1589
tp1590
g2
tp1591
I10
s(((g1
g2
g3
g4
g7
g14
tp1592
(g15
g8
g32
tp1593
tp1594
g14
tp1595
I1
s(((g1
g2
tp1596
(g6
g4
g15
g20
g8
tp1597
tp1598
g2
tp1599
I11
s(((g1
g2
g3
g4
tp1600
(g6
g20
g24
g8
tp1601
tp1602
g4
tp1603
I8
s(((g1
g2
g3
g4
g7
g14
g15
g20
g8
g9
tp1604
(g6
tp1605
tp1606
g8
tp1607
I18
s(((g1
g6
tp1608
(g3
g14
g24
g8
g9
tp1609
tp1610
g6
tp1611
I1
s(((g1
g3
g4
g7
g14
g20
tp1612
(g6
g8
g9
tp1613
tp1614
g20
tp1615
I2
s(((g1
g2
tp1616
(g3
g4
g20
g8
g9
tp1617
tp1618
g2
tp1619
I2
s(((g1
g2
g3
g4
g15
g8
tp1620
(g6
g14
g9
tp1621
tp1622
g8
tp1623
I10
s(((g1
g2
g6
g3
g4
g7
g14
g15
g20
g9
tp1624
(g8
tp1625
tp1626
g9
tp1627
I11
s(((g1
g2
g6
g3
tp1628
(g4
g15
g20
g9
tp1629
tp1630
g3
tp1631
I1
s(((g1
g3
tp1632
(g6
g4
g15
g24
g9
tp1633
tp1634
g3
tp1635
I10
s(((g1
g2
tp1636
(g6
g4
g20
g8
g9
tp1637
tp1638
g2
tp1639
I10
s(((g1
g2
g6
g4
g7
g14
g15
g20
tp1640
(g3
g8
tp1641
tp1642
g15
tp1643
I1
s(((g1
g2
g6
g3
g4
g14
g15
g24
g8
g9
tp1644
(g20
tp1645
tp1646
g9
tp1647
I10
s(((g1
g2
g3
g15
tp1648
(g6
g14
g8
g9
tp1649
tp1650
g3
tp1651
I1
s(((g4
g14
tp1652
(g1
g6
g20
g8
g9
tp1653
tp1654
g14
tp1655
I10
s(((g1
g6
g3
g4
g14
g15
tp1656
(g24
g9
g32
tp1657
tp1658
g15
tp1659
I10
s(((g1
g2
tp1660
(g4
g14
g15
g8
g32
tp1661
tp1662
g2
tp1663
I1
s(((g1
g2
g3
g4
g7
g14
g15
g20
tp1664
(g9
g32
tp1665
tp1666
g20
tp1667
I1
s(((g1
g3
tp1668
(g6
g7
g20
g24
g9
tp1669
tp1670
g3
tp1671
I20
s(((g1
g2
g6
g3
tp1672
(g7
g14
g8
g32
tp1673
tp1674
g3
tp1675
I10
s(((g1
g2
g6
g3
g4
g14
g15
g20
g24
g8
tp1676
(g7
tp1677
tp1678
g8
tp1679
I10
s(((g2
g14
g15
g8
tp1680
(g1
g6
g4
g9
tp1681
tp1682
g8
tp1683
I10
s(((g1
g2
g3
g7
tp1684
(g6
g14
g15
g8
tp1685
tp1686
g3
tp1687
I1
s(((g1
g2
tp1688
(g6
g3
g15
g8
g9
tp1689
tp1690
g2
tp1691
I19
s(((g1
g3
tp1692
(g6
g7
g15
g24
g9
tp1693
tp1694
g3
tp1695
I20
s(((g1
g2
g6
g3
g4
g7
g14
g15
g20
g24
g8
g9
tp1696
(ttp1697
g14
tp1698
I10
s(((g1
g2
g3
g4
g7
g14
g20
g24
g8
g9
tp1699
(g6
tp1700
tp1701
g9
tp1702
I10
s(((g1
g3
g4
g7
g14
g15
tp1703
(g24
g9
g32
tp1704
tp1705
g15
tp1706
I5
s(((g1
g2
g6
g3
tp1707
(g14
g15
g20
g9
tp1708
tp1709
g3
tp1710
I1
s(((g2
g3
tp1711
(g1
g6
g20
g8
g9
tp1712
tp1713
g3
tp1714
I12
s(((g1
g2
g6
g3
g4
g7
g14
g15
g20
g24
tp1715
(g32
tp1716
tp1717
g20
tp1718
I10
s(((g1
g2
g3
g4
g7
g14
g15
g20
g8
g9
tp1719
(g6
tp1720
tp1721
g20
tp1722
I13
s(((g1
g2
g3
g4
g7
g14
g15
g8
tp1723
(g6
g9
tp1724
tp1725
g8
tp1726
I10
s(((g1
g2
g6
g3
tp1727
(g14
g20
g24
g8
tp1728
tp1729
g3
tp1730
I9
s(((g1
g2
g6
g3
g4
g14
g15
g20
tp1731
(g7
g8
tp1732
tp1733
g20
tp1734
I10
s(((g1
g2
tp1735
(g6
g7
g20
g8
g9
tp1736
tp1737
g2
tp1738
I1
s(((g1
g2
g6
g3
tp1739
(g7
g15
g24
g32
tp1740
tp1741
g3
tp1742
I10
s(((g1
g2
g3
g4
g7
g14
tp1743
(g6
g15
g8
tp1744
tp1745
g7
tp1746
I4
s(((g1
g2
g3
g7
g14
g20
tp1747
(g6
g24
g8
tp1748
tp1749
g20
tp1750
I3
s(((g1
g2
tp1751
(g3
g7
g15
g24
g32
tp1752
tp1753
g2
tp1754
I10
s(((g1
g2
g6
g3
g4
g14
g15
g20
tp1755
(g24
g9
tp1756
tp1757
g20
tp1758
I10
s(((g1
g2
g6
g3
g4
g7
g14
g15
tp1759
(g8
g32
tp1760
tp1761
g15
tp1762
I10
s(((g2
g3
g4
g7
tp1763
(g6
g15
g24
g9
tp1764
tp1765
g7
tp1766
I10
s(((g1
g2
g3
g4
tp1767
(g14
g15
g8
g32
tp1768
tp1769
g4
tp1770
I1
s(((g1
g2
tp1771
(g3
g4
g14
g20
g8
tp1772
tp1773
g1
tp1774
I1
s(((g1
g6
g3
g4
g7
g14
g20
g24
tp1775
(g9
g32
tp1776
tp1777
g24
tp1778
I10
s(((g2
g4
g14
g20
tp1779
(g1
g6
g8
g9
tp1780
tp1781
g20
tp1782
I17
s(((g1
g2
g6
g3
g4
g7
g14
g15
g20
g8
tp1783
(g9
tp1784
tp1785
g20
tp1786
I1
s(((g1
g6
g3
g7
tp1787
(g14
g20
g9
g32
tp1788
tp1789
g7
tp1790
I1
s(((g1
g2
g3
g4
g7
g14
g15
g20
g8
g9
tp1791
(g6
tp1792
tp1793
g15
tp1794
I36
s(((g1
g2
g6
g3
tp1795
(g7
g15
g20
g24
tp1796
tp1797
g3
tp1798
I8
s(((g1
g3
g4
g7
g14
g15
g20
g24
tp1799
(g9
g32
tp1800
tp1801
g24
tp1802
I5
s(((g1
g2
g6
g3
g4
g7
tp1803
(g14
g24
g8
tp1804
tp1805
g7
tp1806
I2
s(((g1
g2
g6
g3
g4
g14
tp1807
(g15
g24
g9
tp1808
tp1809
g14
tp1810
I10
s(((g1
g2
g6
g3
g4
g7
g14
g15
g20
g24
g8
g9
tp1811
(ttp1812
g7
tp1813
I10
s(((g1
g2
g3
g4
g14
g15
g20
g8
tp1814
(g6
g7
tp1815
tp1816
g8
tp1817
I11
s(((g1
g2
tp1818
(g3
g7
g20
g24
g8
tp1819
tp1820
g2
tp1821
I10
s(((g2
g6
g3
g4
g7
g14
tp1822
(g20
g8
g9
tp1823
tp1824
g14
tp1825
I10
s(((g1
g2
g3
g4
g14
g15
g20
g8
tp1826
(g6
g9
tp1827
tp1828
g14
tp1829
I43
s(((g1
g3
tp1830
(g6
g14
g15
g8
g9
tp1831
tp1832
g3
tp1833
I3
s(((g2
g4
g14
g15
tp1834
(g1
g6
g8
g9
tp1835
tp1836
g15
tp1837
I13
s(((g1
g2
g4
g7
g14
g20
tp1838
(g6
g8
g9
tp1839
tp1840
g20
tp1841
I1
s(((g1
g2
g3
g4
tp1842
(g6
g14
g20
g8
tp1843
tp1844
g3
tp1845
I1
s(((g2
g6
g3
g4
g7
g14
g15
g20
g24
g9
tp1846
(g32
tp1847
tp1848
g9
tp1849
I10
s(((g1
g4
tp1850
(g2
g6
g3
g8
g9
tp1851
tp1852
g4
tp1853
I1
s(((g1
g2
g3
g4
g14
g15
g20
g9
tp1854
(g6
g8
tp1855
tp1856
g9
tp1857
I1
s(((g1
g3
tp1858
(g6
g4
g7
g15
g8
tp1859
tp1860
g3
tp1861
I11
s(((g1
g2
g6
g3
tp1862
(g14
g20
g9
g32
tp1863
tp1864
g3
tp1865
I20
s(((g1
g2
g6
g3
g4
g7
g14
g20
tp1866
(g24
g9
tp1867
tp1868
g20
tp1869
I2
s(((g1
g2
g3
g4
tp1870
(g6
g14
g20
g24
tp1871
tp1872
g4
tp1873
I5
s(((g1
g4
tp1874
(g7
g15
g24
g9
g32
tp1875
tp1876
g4
tp1877
I1
s(((g1
g2
g3
g4
g14
g15
g20
g8
tp1878
(g6
g9
tp1879
tp1880
g20
tp1881
I11
s(((g1
g2
g6
g3
g4
g14
tp1882
(g20
g24
g8
tp1883
tp1884
g14
tp1885
I9
s(((g1
g2
g6
g3
g4
g7
g14
g15
g20
g24
g8
g9
tp1886
(ttp1887
g9
tp1888
I11
s(((g1
g6
tp1889
(g7
g15
g8
g9
g32
tp1890
tp1891
g6
tp1892
I1
s(((g1
g6
g3
g4
tp1893
(g14
g24
g9
g32
tp1894
tp1895
g4
tp1896
I10
s(((g2
g3
g14
g20
tp1897
(g1
g6
g8
g9
tp1898
tp1899
g20
tp1900
I3
s(((g1
g2
g6
g3
tp1901
(g14
g20
g8
g32
tp1902
tp1903
g3
tp1904
I10
s(((g2
g3
g4
g7
tp1905
(g6
g15
g8
g9
tp1906
tp1907
g7
tp1908
I10
s(((g1
g6
g3
g4
g7
g14
g15
g20
tp1909
(g2
g8
tp1910
tp1911
g20
tp1912
I10
s(((g1
g2
g3
g4
g7
g14
g15
g24
tp1913
(g8
g9
tp1914
tp1915
g24
tp1916
I9
s(((g1
g2
g3
g4
g7
g15
tp1917
(g6
g20
g8
tp1918
tp1919
g15
tp1920
I10
s(((g1
g2
g3
g4
g7
g14
g15
g20
g24
g32
tp1921
(g9
tp1922
tp1923
g32
tp1924
I1
s(((g2
g14
g15
g20
tp1925
(g1
g6
g4
g9
tp1926
tp1927
g20
tp1928
I10
s(((g1
g2
g3
g4
g7
g14
g15
g24
g8
g9
tp1929
(g6
tp1930
tp1931
g9
tp1932
I10
s(((g1
g2
g6
g3
g4
g15
tp1933
(g14
g24
g32
tp1934
tp1935
g15
tp1936
I1
s(((g1
g2
tp1937
(g4
g7
g20
g24
g8
tp1938
tp1939
g2
tp1940
I1
s(((g1
g2
g6
g3
tp1941
(g7
g20
g24
g9
tp1942
tp1943
g3
tp1944
I2
s(((g1
g2
g3
g4
g7
g14
tp1945
(g6
g20
g8
tp1946
tp1947
g7
tp1948
I2
s(((g1
g2
g6
g3
g7
g14
tp1949
(g4
g15
g8
tp1950
tp1951
g14
tp1952
I1
s(((g1
g3
g4
g7
tp1953
(g6
g20
g8
g9
tp1954
tp1955
g7
tp1956
I2
s(((g1
g2
g4
g7
g14
g15
tp1957
(g6
g8
g9
tp1958
tp1959
g14
tp1960
I1
s(((g1
g6
tp1961
(g7
g15
g24
g8
g32
tp1962
tp1963
g6
tp1964
I1
s(((g2
g3
tp1965
(g1
g6
g14
g20
g9
tp1966
tp1967
g3
tp1968
I10
s(((g1
g3
g4
g7
g14
g15
tp1969
(g6
g8
g9
tp1970
tp1971
g15
tp1972
I10
s(((g1
g2
g6
g4
g7
g14
g15
g20
g24
g8
g9
g32
tp1973
(ttp1974
g9
tp1975
I9
s(((g1
g2
g6
g3
g4
g7
tp1976
(g15
g20
g8
tp1977
tp1978
g4
tp1979
I10
s(((g1
g2
g6
g4
g14
g15
tp1980
(g3
g24
g32
tp1981
tp1982
g15
tp1983
I1
s(((g1
g2
g3
g4
g7
g14
tp1984
(g20
g24
g9
tp1985
tp1986
g14
tp1987
I3
s(((g4
g15
tp1988
(g1
g2
g6
g14
g9
tp1989
tp1990
g15
tp1991
I11
s(((g1
g2
g3
g7
g14
g15
g20
g24
tp1992
(g6
g9
tp1993
tp1994
g24
tp1995
I22
s(((g1
g2
g6
g4
g7
g14
tp1996
(g3
g15
g8
tp1997
tp1998
g14
tp1999
I1
s(((g1
g2
tp2000
(g6
g4
g20
g24
g9
tp2001
tp2002
g2
tp2003
I10
s(((g1
g2
g6
g3
g4
g7
tp2004
(g15
g20
g9
tp2005
tp2006
g7
tp2007
I10
s(((g1
g2
g6
g4
g7
g14
g15
g20
g24
g9
tp2008
(g3
tp2009
tp2010
g9
tp2011
I9
s(((g1
g2
g3
g4
tp2012
(g6
g15
g20
g8
tp2013
tp2014
g4
tp2015
I12
s(((g2
g3
g4
g15
g20
g8
tp2016
(g1
g6
g9
tp2017
tp2018
g20
tp2019
I18
s(((g1
g6
g3
g4
tp2020
(g14
g20
g8
g9
tp2021
tp2022
g4
tp2023
I10
s(((g2
g6
tp2024
(g4
g14
g20
g8
g9
tp2025
tp2026
g6
tp2027
I10
s(((g1
g2
g3
g4
g7
g14
g15
g24
tp2028
(g6
g9
tp2029
tp2030
g24
tp2031
I20
s(((g1
g2
g6
g3
g4
g7
tp2032
(g20
g8
g9
tp2033
tp2034
g4
tp2035
I2
s(((g2
g3
g4
g7
g14
g15
tp2036
(g6
g24
g9
tp2037
tp2038
g15
tp2039
I10
s(((g1
g2
g6
g3
g4
g7
g14
g15
g20
g8
g9
g32
tp2040
(ttp2041
g32
tp2042
I10
s(((g1
g2
g6
g3
g7
g14
tp2043
(g4
g20
g9
tp2044
tp2045
g14
tp2046
I10
s(((g1
g2
tp2047
(g3
g14
g24
g8
g9
tp2048
tp2049
g2
tp2050
I10
s(((g1
g6
g3
g4
g7
g14
g15
g20
g24
g8
tp2051
(g2
tp2052
tp2053
g8
tp2054
I10
s(((g2
g6
g3
g4
g7
g14
g15
g20
g24
g8
tp2055
(g1
tp2056
tp2057
g8
tp2058
I10
s(((g1
g2
g3
g7
g14
g15
tp2059
(g6
g20
g9
tp2060
tp2061
g15
tp2062
I2
s(((g1
g6
g3
g4
g7
g14
g15
g20
g24
g9
tp2063
(g32
tp2064
tp2065
g9
tp2066
I11
s(((g1
g2
g4
g15
g20
g8
tp2067
(g6
g3
g9
tp2068
tp2069
g8
tp2070
I10
s(((g1
g2
tp2071
(g3
g15
g20
g9
g32
tp2072
tp2073
g2
tp2074
I2
s(((g1
g2
g6
g3
g4
g14
tp2075
(g20
g9
g32
tp2076
tp2077
g14
tp2078
I10
s(((g1
g2
g6
g3
g4
g7
g15
g20
tp2079
(g8
g9
tp2080
tp2081
g20
tp2082
I2
s(((g14
g15
tp2083
(g1
g6
g4
g8
g9
tp2084
tp2085
g15
tp2086
I12
s(((g1
g2
tp2087
(g3
g7
g14
g20
g8
tp2088
tp2089
g2
tp2090
I10
s(((g1
g2
g4
g7
g14
g15
g20
g8
tp2091
(g6
g9
tp2092
tp2093
g8
tp2094
I13
s(((g14
g15
g20
g8
tp2095
(g1
g2
g6
g9
tp2096
tp2097
g8
tp2098
I10
s(((g1
g6
tp2099
(g4
g14
g20
g8
g9
tp2100
tp2101
g6
tp2102
I10
s(((g1
g3
g4
g7
tp2103
(g2
g6
g15
g8
tp2104
tp2105
g7
tp2106
I10
s(((g1
g2
tp2107
(g3
g4
g14
g24
g9
tp2108
tp2109
g2
tp2110
I1
s(((g1
g2
g3
g14
tp2111
(g6
g4
g15
g9
tp2112
tp2113
g14
tp2114
I1
s(((g1
g2
g6
g3
g4
g7
g14
g20
g24
g8
g9
g32
tp2115
(ttp2116
g9
tp2117
I2
s(((g1
g2
tp2118
(g3
g15
g20
g24
g9
tp2119
tp2120
g2
tp2121
I10
s(((g1
g2
tp2122
(g6
g7
g15
g24
g9
tp2123
tp2124
g2
tp2125
I19
s(((g1
g2
tp2126
(g6
g14
g15
g20
g9
tp2127
tp2128
g2
tp2129
I3
s(((g1
g2
g6
g3
tp2130
(g4
g15
g24
g9
tp2131
tp2132
g3
tp2133
I10
s(((g1
g2
g4
g7
g14
g20
tp2134
(g6
g15
g9
tp2135
tp2136
g20
tp2137
I10
s(((g1
g2
g6
g3
g4
g7
tp2138
(g20
g24
g8
tp2139
tp2140
g7
tp2141
I11
s(((g1
g2
g3
g4
tp2142
(g6
g7
g14
g9
tp2143
tp2144
g4
tp2145
I3
s(((g1
g2
tp2146
(g3
g7
g20
g8
g32
tp2147
tp2148
g2
tp2149
I10
s(((g1
g2
g3
g7
g14
g20
tp2150
(g6
g24
g9
tp2151
tp2152
g20
tp2153
I10
s(((g4
g14
g15
g20
tp2154
(g1
g2
g6
g9
tp2155
tp2156
g20
tp2157
I10
s(((g1
g2
g3
g7
tp2158
(g6
g15
g8
g9
tp2159
tp2160
g3
tp2161
I9
s(((g1
g2
tp2162
(g6
g7
g14
g15
g9
tp2163
tp2164
g1
tp2165
I4
s(((g1
g2
g3
g4
g7
g14
g15
g20
g8
g9
tp2166
(g6
tp2167
tp2168
g14
tp2169
I10
s(((g1
g2
g3
g4
g14
g15
tp2170
(g6
g20
g9
tp2171
tp2172
g15
tp2173
I10
s(((g2
g3
g4
g15
tp2174
(g1
g6
g8
g9
tp2175
tp2176
g4
tp2177
I3
s(((g1
g6
tp2178
(g7
g20
g24
g9
g32
tp2179
tp2180
g6
tp2181
I1
s(((g1
g6
g3
g4
g7
g14
tp2182
(g2
g20
g8
tp2183
tp2184
g14
tp2185
I10
s(((g1
g3
tp2186
(g6
g4
g7
g8
g9
tp2187
tp2188
g3
tp2189
I3
s(((g1
g2
tp2190
(g3
g7
g14
g8
g32
tp2191
tp2192
g2
tp2193
I10
s(((g1
g2
tp2194
(g4
g14
g15
g24
g9
tp2195
tp2196
g2
tp2197
I7
s(((g1
g2
g6
g3
g4
g7
g14
g15
tp2198
(g24
g9
tp2199
tp2200
g15
tp2201
I10
s(((g1
g2
g6
g3
g14
g15
tp2202
(g4
g24
g9
tp2203
tp2204
g15
tp2205
I10
s(((g1
g2
g3
g4
tp2206
(g14
g20
g8
g32
tp2207
tp2208
g4
tp2209
I10
s(((g1
g2
g3
g4
g14
g15
tp2210
(g6
g24
g8
tp2211
tp2212
g14
tp2213
I1
s(((g1
g2
g6
g4
g7
g14
tp2214
(g3
g20
g8
tp2215
tp2216
g14
tp2217
I10
s(((g1
g2
g3
g4
g14
g15
tp2218
(g6
g7
g9
tp2219
tp2220
g15
tp2221
I10
s(((g1
g2
tp2222
(g6
g7
g14
g15
g8
tp2223
tp2224
g1
tp2225
I4
s(((g2
g3
tp2226
(g6
g7
g15
g24
g9
tp2227
tp2228
g3
tp2229
I11
s(((g1
g2
g6
g3
g4
g7
g14
g20
tp2230
(g8
g32
tp2231
tp2232
g20
tp2233
I10
s(((g1
g6
g3
g4
g7
g14
g15
g20
tp2234
(g9
g32
tp2235
tp2236
g20
tp2237
I21
s(((g1
g2
g3
g4
g14
g15
tp2238
(g6
g20
g8
tp2239
tp2240
g15
tp2241
I2
s(((g1
g2
tp2242
(g6
g4
g7
g20
g9
tp2243
tp2244
g2
tp2245
I4
s(((g1
g2
tp2246
(g3
g4
g14
g15
g9
tp2247
tp2248
g2
tp2249
I9
s(((g1
g2
g3
g4
g7
g14
g15
g20
tp2250
(g6
g8
tp2251
tp2252
g20
tp2253
I13
s(((g1
g6
tp2254
(g3
g4
g15
g24
g9
tp2255
tp2256
g6
tp2257
I8
s(((g1
g2
g6
g3
g4
g14
g20
g24
tp2258
(g15
g9
tp2259
tp2260
g24
tp2261
I10
s(((g1
g2
g3
g4
g7
g14
g15
g20
g8
g9
tp2262
(g6
tp2263
tp2264
g1
tp2265
I12
s(((g1
g2
g6
g3
g4
g14
g15
g20
g24
g8
g9
g32
tp2266
(ttp2267
g3
tp2268
I11
s(((g1
g2
g4
g7
tp2269
(g6
g15
g8
g9
tp2270
tp2271
g4
tp2272
I1
s(((g1
g2
g6
g3
g4
g14
g15
g20
tp2273
(g24
g32
tp2274
tp2275
g20
tp2276
I2
s(((g1
g2
g4
g7
tp2277
(g6
g3
g15
g9
tp2278
tp2279
g7
tp2280
I2
s(((g1
g6
tp2281
(g7
g15
g24
g9
g32
tp2282
tp2283
g6
tp2284
I20
s(((g1
g2
g6
g3
g4
g7
g14
g15
tp2285
(g20
g8
tp2286
tp2287
g14
tp2288
I2
s(((g1
g2
g6
g4
tp2289
(g14
g20
g8
g9
tp2290
tp2291
g4
tp2292
I9
s(((g1
g2
g6
g3
g7
g14
g15
g20
g24
g8
tp2293
(g4
tp2294
tp2295
g24
tp2296
I1
s(((g2
g4
g14
g15
tp2297
(g1
g6
g8
g9
tp2298
tp2299
g14
tp2300
I2
s(((g1
g2
g3
g7
tp2301
(g6
g15
g24
g8
tp2302
tp2303
g7
tp2304
I10
s(((g1
g2
g6
g3
g4
g14
tp2305
(g20
g24
g32
tp2306
tp2307
g14
tp2308
I2
s(((g1
g6
g3
g4
g7
g14
tp2309
(g20
g9
g32
tp2310
tp2311
g14
tp2312
I13
s(((g1
g2
tp2313
(g6
g4
g14
g20
g24
tp2314
tp2315
g2
tp2316
I5
s(((g1
g2
g3
g4
g7
g14
g15
g20
g24
g8
tp2317
(g6
tp2318
tp2319
g8
tp2320
I12
s(((g1
g2
g6
g4
tp2321
(g14
g20
g8
g32
tp2322
tp2323
g4
tp2324
I10
s(((g1
g2
g6
g3
g4
g14
tp2325
(g15
g9
g32
tp2326
tp2327
g14
tp2328
I2
s(((g1
g2
tp2329
(g3
g7
g15
g20
g8
tp2330
tp2331
g2
tp2332
I10
s(((g1
g2
tp2333
(g3
g7
g15
g8
g9
tp2334
tp2335
g2
tp2336
I10
s(((g1
g2
tp2337
(g6
g14
g20
g8
g9
tp2338
tp2339
g2
tp2340
I10
s(((g1
g2
g4
g7
g14
g20
tp2341
(g6
g24
g9
tp2342
tp2343
g20
tp2344
I10
s(((g1
g2
g6
g3
tp2345
(g7
g15
g8
g9
tp2346
tp2347
g3
tp2348
I10
s(((g2
g4
g14
g15
g20
g8
tp2349
(g1
g6
g9
tp2350
tp2351
g8
tp2352
I3430
s(((g1
g2
tp2353
(g6
g7
g15
g8
g9
tp2354
tp2355
g2
tp2356
I21
s(((g1
g2
g4
g7
tp2357
(g6
g20
g24
g9
tp2358
tp2359
g7
tp2360
I10
s(((g1
g2
g6
g3
g4
g20
tp2361
(g14
g24
g9
tp2362
tp2363
g20
tp2364
I1
s(((g1
g2
g6
g3
g4
g7
g14
g15
g20
g24
g8
g9
tp2365
(ttp2366
g2
tp2367
I10
s(((g1
g2
g3
g4
tp2368
(g6
g7
g14
g8
tp2369
tp2370
g4
tp2371
I2
s(((g2
g4
tp2372
(g1
g6
g15
g8
g9
tp2373
tp2374
g4
tp2375
I14
s(((g2
g3
tp2376
(g1
g6
g14
g15
g9
tp2377
tp2378
g3
tp2379
I10
s(((g1
g2
tp2380
(g6
g3
g14
g8
g9
tp2381
tp2382
g2
tp2383
I11
s(((g4
g15
tp2384
(g1
g2
g6
g8
g9
tp2385
tp2386
g15
tp2387
I11
s(((g1
g2
g3
g7
g14
g15
tp2388
(g6
g4
g9
tp2389
tp2390
g15
tp2391
I11
s(((g1
g2
g3
g4
g7
g14
g20
g9
tp2392
(g6
g15
tp2393
tp2394
g20
tp2395
I1
s(((g1
g2
g3
g4
g14
g15
g20
g24
g8
g9
tp2396
(g6
tp2397
tp2398
g8
tp2399
I11
s(((g1
g6
g3
g4
g7
g14
g15
g20
g24
g8
tp2400
(g32
tp2401
tp2402
g8
tp2403
I10
s(((g1
g2
g3
g20
tp2404
(g6
g14
g8
g9
tp2405
tp2406
g20
tp2407
I1
s(((g1
g2
g3
g4
g7
g14
g15
g20
g24
g8
g9
g32
tp2408
(ttp2409
g32
tp2410
I10
s(((g1
g2
g3
g7
tp2411
(g6
g4
g15
g9
tp2412
tp2413
g7
tp2414
I10
s(((g1
g2
g6
g3
tp2415
(g7
g20
g8
g32
tp2416
tp2417
g6
tp2418
I1
s(((g1
g2
g3
g4
g7
g14
g15
g20
g8
g9
tp2419
(g6
tp2420
tp2421
g2
tp2422
I10
s(((g1
g2
g6
g3
tp2423
(g7
g14
g20
g8
tp2424
tp2425
g6
tp2426
I1
s(((g1
g3
g4
g14
g15
g20
tp2427
(g2
g6
g9
tp2428
tp2429
g15
tp2430
I1
s(((g2
g14
tp2431
(g1
g6
g20
g8
g9
tp2432
tp2433
g14
tp2434
I21
s(((g1
g3
g4
g7
g14
g15
g20
g8
tp2435
(g6
g9
tp2436
tp2437
g8
tp2438
I12
s(((g1
g2
g3
g4
g7
g15
tp2439
(g6
g24
g9
tp2440
tp2441
g15
tp2442
I20
s(((g1
g2
g3
g4
tp2443
(g6
g15
g24
g8
tp2444
tp2445
g4
tp2446
I10
s(((g1
g6
tp2447
(g4
g14
g24
g9
g32
tp2448
tp2449
g6
tp2450
I10
s(((g2
g3
tp2451
(g1
g6
g15
g20
g9
tp2452
tp2453
g3
tp2454
I10
s(((g1
g2
g6
g3
g4
g14
g15
g20
g8
g32
tp2455
(g9
tp2456
tp2457
g32
tp2458
I3
s(((g1
g2
tp2459
(g3
g4
g7
g20
g8
tp2460
tp2461
g2
tp2462
I1
s(((g1
g2
g6
g3
g4
g7
g14
g20
g24
g8
tp2463
(g9
tp2464
tp2465
g8
tp2466
I2
s(((g1
g2
g3
g14
tp2467
(g6
g7
g15
g8
tp2468
tp2469
g14
tp2470
I4
s(((g1
g2
tp2471
(g3
g14
g24
g9
g32
tp2472
tp2473
g2
tp2474
I3
s(((g1
g2
g6
g3
g4
g7
g14
g15
g20
g24
tp2475
(g8
tp2476
tp2477
g20
tp2478
I10
s(((g1
g2
g3
g4
g14
g20
tp2479
(g6
g8
g9
tp2480
tp2481
g20
tp2482
I7
s(((g1
g2
g6
g4
g7
g14
tp2483
(g3
g20
g8
tp2484
tp2485
g7
tp2486
I1
s(((g1
g2
g3
g4
tp2487
(g6
g14
g8
g9
tp2488
tp2489
g4
tp2490
I10
s(((g2
g3
g4
g15
tp2491
(g1
g6
g8
g9
tp2492
tp2493
g15
tp2494
I14
s(((g1
g2
tp2495
(g4
g14
g20
g9
g32
tp2496
tp2497
g2
tp2498
I1
s(((g2
g4
g15
g20
tp2499
(g1
g6
g14
g9
tp2500
tp2501
g15
tp2502
I1
s(((g1
g2
g6
g3
tp2503
(g15
g20
g9
g32
tp2504
tp2505
g3
tp2506
I2
s(((g1
g2
g4
g14
tp2507
(g6
g3
g20
g9
tp2508
tp2509
g14
tp2510
I11
s(((g1
g2
g6
g4
tp2511
(g3
g15
g24
g9
tp2512
tp2513
g4
tp2514
I10
s(((g1
g2
g6
g3
g14
g15
g20
g24
g8
g9
tp2515
(g4
tp2516
tp2517
g9
tp2518
I10
s(((g1
g2
g3
g4
g7
g14
g15
g20
tp2519
(g6
g9
tp2520
tp2521
g14
tp2522
I10
s(((g1
g2
g3
g4
g14
g15
g24
g8
tp2523
(g6
g20
tp2524
tp2525
g8
tp2526
I2
s(((g2
g6
g3
g4
g7
g14
tp2527
(g20
g8
g32
tp2528
tp2529
g14
tp2530
I10
s(((g1
g2
g6
g3
g4
g14
g15
g20
g24
g8
g9
g32
tp2531
(ttp2532
g4
tp2533
I10
s(((g1
g2
g6
g3
g4
g14
g15
g20
g24
g8
g9
g32
tp2534
(ttp2535
g15
tp2536
I10
s(((g1
g6
g3
g4
g7
g14
g15
g24
tp2537
(g8
g9
tp2538
tp2539
g24
tp2540
I8
s(((g1
g2
g6
g3
tp2541
(g7
g14
g20
g8
tp2542
tp2543
g3
tp2544
I10
s(((g1
g6
g3
g7
g14
g15
g20
g24
g8
g9
tp2545
(g32
tp2546
tp2547
g9
tp2548
I10
s(((g2
g6
g3
g4
g7
g14
g15
g20
g24
g8
tp2549
(g32
tp2550
tp2551
g8
tp2552
I10
s(((g1
g2
g4
g14
g15
g8
tp2553
(g6
g3
g9
tp2554
tp2555
g8
tp2556
I10
s(((g1
g3
tp2557
(g6
g7
g15
g8
g9
tp2558
tp2559
g3
tp2560
I11
s(((g2
g15
tp2561
(g1
g6
g14
g20
g9
tp2562
tp2563
g15
tp2564
I1
s(((g1
g4
tp2565
(g6
g3
g14
g8
g9
tp2566
tp2567
g4
tp2568
I10
s(((g4
g14
g15
g20
tp2569
(g1
g6
g8
g9
tp2570
tp2571
g14
tp2572
I13
s(((g1
g6
tp2573
(g2
g4
g14
g20
g8
tp2574
tp2575
g6
tp2576
I10
s(((g1
g2
g3
g4
g20
g8
tp2577
(g6
g14
g9
tp2578
tp2579
g8
tp2580
I11
s(((g2
g14
tp2581
(g1
g6
g4
g8
g9
tp2582
tp2583
g14
tp2584
I3272
s(((g1
g2
tp2585
(g6
g7
g20
g24
g8
tp2586
tp2587
g2
tp2588
I3
s(((g1
g2
g3
g7
g14
g15
g20
g24
g8
g9
tp2589
(g6
tp2590
tp2591
g8
tp2592
I10
s(((g2
g6
g3
g4
tp2593
(g14
g20
g9
g32
tp2594
tp2595
g4
tp2596
I10
s(((g1
g2
tp2597
(g4
g14
g24
g8
g9
tp2598
tp2599
g2
tp2600
I9
s(((g1
g2
g6
g3
g4
g14
g15
g24
tp2601
(g8
g9
tp2602
tp2603
g24
tp2604
I10
s(((g1
g2
g6
g4
tp2605
(g14
g20
g24
g9
tp2606
tp2607
g4
tp2608
I1
s(((g1
g2
g6
g3
tp2609
(g7
g14
g24
g8
tp2610
tp2611
g3
tp2612
I2
s(((g1
g2
g3
g4
g14
g15
tp2613
(g6
g24
g8
tp2614
tp2615
g15
tp2616
I11
s(((g1
g2
g6
g3
g4
g15
g20
g24
g8
g9
tp2617
(g14
tp2618
tp2619
g9
tp2620
I12
s(((g1
g2
g3
g4
tp2621
(g6
g7
g15
g9
tp2622
tp2623
g3
tp2624
I1
s(((g1
g2
g6
g3
tp2625
(g14
g24
g8
g9
tp2626
tp2627
g3
tp2628
I12
s(((g1
g2
g6
g3
g7
g14
tp2629
(g24
g9
g32
tp2630
tp2631
g14
tp2632
I3
s(((g2
g6
tp2633
(g4
g14
g20
g9
g32
tp2634
tp2635
g6
tp2636
I10
s(((g1
g2
g6
g3
g4
g7
g14
g15
g20
g24
g8
g32
tp2637
(ttp2638
g24
tp2639
I8
s(((g1
g2
g6
g3
g4
g14
g15
g20
g24
g8
g9
g32
tp2640
(ttp2641
g32
tp2642
I10
s(((g1
g2
g6
g4
tp2643
(g3
g14
g15
g8
tp2644
tp2645
g4
tp2646
I1
s(((g1
g2
g3
g4
g14
g15
tp2647
(g6
g7
g8
tp2648
tp2649
g15
tp2650
I10
s(((g1
g2
g3
g7
tp2651
(g6
g14
g15
g9
tp2652
tp2653
g7
tp2654
I10
s(((g1
g2
g3
g4
tp2655
(g15
g20
g8
g9
tp2656
tp2657
g4
tp2658
I1
s(((g1
g2
g6
g3
g7
g14
g15
g20
tp2659
(g8
g9
tp2660
tp2661
g20
tp2662
I11
s(((g1
g6
g4
g7
g14
g15
tp2663
(g24
g9
g32
tp2664
tp2665
g15
tp2666
I12
s(((g2
g3
g14
g15
tp2667
(g1
g6
g8
g9
tp2668
tp2669
g15
tp2670
I10
s(((g2
g3
tp2671
(g6
g7
g15
g8
g9
tp2672
tp2673
g3
tp2674
I10
s(((g1
g2
g6
g3
g4
g14
tp2675
(g24
g8
g9
tp2676
tp2677
g14
tp2678
I10
s(((g1
g2
g6
g3
g4
g7
g14
g15
g20
g24
g8
g9
tp2679
(ttp2680
g15
tp2681
I10
s(((g1
g2
g6
g3
tp2682
(g7
g15
g20
g9
tp2683
tp2684
g3
tp2685
I10
s(((g1
g2
g3
g4
tp2686
(g6
g15
g20
g9
tp2687
tp2688
g1
tp2689
I1
s(((g2
g14
g20
g8
tp2690
(g1
g6
g4
g9
tp2691
tp2692
g8
tp2693
I1
s(((g1
g2
g3
g4
tp2694
(g6
g7
g20
g8
tp2695
tp2696
g4
tp2697
I4
s(((g1
g2
g6
g3
g4
g7
g15
g20
g24
g8
g9
g32
tp2698
(ttp2699
g32
tp2700
I10
s(((g1
g2
g3
g4
tp2701
(g6
g7
g15
g20
tp2702
tp2703
g4
tp2704
I2
s(((g2
g4
g14
g15
g20
g8
tp2705
(g1
g6
g9
tp2706
tp2707
g4
tp2708
I22
s(((g1
g2
g3
g14
g15
g20
tp2709
(g6
g4
g9
tp2710
tp2711
g20
tp2712
I10
s(((g1
g2
tp2713
(g6
g14
g24
g8
g9
tp2714
tp2715
g2
tp2716
I1
s(((g1
g2
tp2717
(g3
g4
g14
g20
g8
tp2718
tp2719
g2
tp2720
I10
s(((g1
g2
g3
g4
tp2721
(g6
g15
g8
g9
tp2722
tp2723
g4
tp2724
I15
s(((g1
g2
g6
g3
g7
g15
tp2725
(g4
g20
g9
tp2726
tp2727
g15
tp2728
I1
s(((g2
g6
tp2729
(g4
g14
g20
g8
g32
tp2730
tp2731
g6
tp2732
I10
s(((g1
g2
g6
g3
g4
g7
g14
g15
g20
g24
g8
g32
tp2733
(ttp2734
g8
tp2735
I10
s(((g1
g2
g3
g7
g14
g15
g20
g8
tp2736
(g6
g9
tp2737
tp2738
g8
tp2739
I10
s(((g1
g2
g6
g3
g4
g7
g14
g15
g24
g8
tp2740
(g9
tp2741
tp2742
g8
tp2743
I2
s(((g1
g2
g6
g3
g4
g7
g14
g15
g20
g24
g8
g9
tp2744
(ttp2745
g20
tp2746
I11
s(((g1
g2
g6
g3
g4
g15
g20
g24
tp2747
(g14
g9
tp2748
tp2749
g24
tp2750
I12
s(((g1
g2
g3
g4
g7
g14
g15
g20
tp2751
(g8
g32
tp2752
tp2753
g15
tp2754
I1
s(((g1
g6
tp2755
(g7
g14
g24
g9
g32
tp2756
tp2757
g6
tp2758
I10
s(((g1
g2
g3
g7
g14
g15
g20
g8
tp2759
(g6
g9
tp2760
tp2761
g20
tp2762
I2
s(((g1
g2
g6
g3
g7
g14
g15
g20
g8
g32
tp2763
(g9
tp2764
tp2765
g32
tp2766
I1
s(((g4
g14
g15
g8
tp2767
(g1
g2
g6
g9
tp2768
tp2769
g14
tp2770
I10
s(((g1
g2
g6
g3
g4
g7
g14
g15
g20
g8
g9
g32
tp2771
(ttp2772
g20
tp2773
I9
s(((g2
g6
g3
g4
g7
g14
g15
g20
tp2774
(g8
g9
tp2775
tp2776
g20
tp2777
I10
s(((g1
g2
tp2778
(g6
g4
g14
g15
g8
tp2779
tp2780
g2
tp2781
I10
s(((g2
g6
g3
g4
tp2782
(g14
g20
g8
g32
tp2783
tp2784
g4
tp2785
I10
s(((g2
g3
g4
g14
g15
g8
tp2786
(g1
g6
g9
tp2787
tp2788
g15
tp2789
I10
s(((g1
g3
g4
g14
tp2790
(g2
g6
g20
g9
tp2791
tp2792
g14
tp2793
I10
s(((g1
g6
g4
g7
tp2794
(g15
g24
g8
g32
tp2795
tp2796
g7
tp2797
I1
s(((g4
g14
g15
g20
tp2798
(g1
g6
g8
g9
tp2799
tp2800
g4
tp2801
I32
s(((g1
g6
g3
g4
tp2802
(g14
g24
g8
g9
tp2803
tp2804
g4
tp2805
I8
s(((g1
g6
g4
g7
g14
g15
g20
g24
tp2806
(g9
g32
tp2807
tp2808
g24
tp2809
I13
s(((g1
g2
g6
g3
tp2810
(g4
g20
g8
g32
tp2811
tp2812
g3
tp2813
I9
s(((g1
g2
g3
g4
g7
g20
tp2814
(g6
g15
g8
tp2815
tp2816
g20
tp2817
I10
s(((g1
g2
g6
g4
g7
g14
g15
g20
tp2818
(g3
g8
tp2819
tp2820
g20
tp2821
I11
s(((g2
g3
g14
g15
g20
g8
tp2822
(g1
g6
g9
tp2823
tp2824
g8
tp2825
I13
s(((g1
g2
g3
g14
tp2826
(g6
g4
g20
g9
tp2827
tp2828
g14
tp2829
I10
s(((g4
g14
tp2830
(g1
g6
g15
g8
g9
tp2831
tp2832
g14
tp2833
I10
s(((g1
g2
g6
g4
tp2834
(g7
g20
g24
g8
tp2835
tp2836
g4
tp2837
I1
s(((g1
g2
g6
g3
g4
g7
g14
g15
g20
g24
g9
g32
tp2838
(ttp2839
g32
tp2840
I10
s(((g1
g2
g6
g3
tp2841
(g14
g20
g24
g32
tp2842
tp2843
g3
tp2844
I2
s(((g1
g2
g3
g4
g7
g14
tp2845
(g20
g8
g32
tp2846
tp2847
g14
tp2848
I10
s(((g1
g2
g4
g7
tp2849
(g6
g14
g20
g9
tp2850
tp2851
g7
tp2852
I5
s(((g1
g2
g6
g4
g7
g14
g15
g20
tp2853
(g8
g32
tp2854
tp2855
g20
tp2856
I10
s(((g1
g2
g6
g3
g4
g14
tp2857
(g7
g20
g8
tp2858
tp2859
g14
tp2860
I10
s(((g2
g3
tp2861
(g1
g6
g14
g8
g9
tp2862
tp2863
g3
tp2864
I10
s(((g1
g2
g6
g4
g14
g15
g20
g24
g8
g9
tp2865
(g3
tp2866
tp2867
g9
tp2868
I10
s(((g1
g2
tp2869
(g6
g4
g7
g20
g8
tp2870
tp2871
g2
tp2872
I4
s(((g1
g3
tp2873
(g6
g4
g14
g20
g9
tp2874
tp2875
g3
tp2876
I10
s(((g1
g2
g3
g4
g7
g8
tp2877
(g6
g15
g9
tp2878
tp2879
g8
tp2880
I11
s(((g1
g2
g6
g3
g4
g7
tp2881
(g14
g20
g9
tp2882
tp2883
g7
tp2884
I7
s(((g1
g2
tp2885
(g4
g14
g20
g8
g32
tp2886
tp2887
g2
tp2888
I10
s(((g1
g6
g4
g7
g14
g15
g20
g24
g8
g9
tp2889
(g32
tp2890
tp2891
g8
tp2892
I1
s(((g1
g2
g3
g15
tp2893
(g6
g14
g8
g9
tp2894
tp2895
g15
tp2896
I10
s(((g4
g14
tp2897
(g1
g2
g6
g20
g9
tp2898
tp2899
g14
tp2900
I10
s(((g1
g6
g4
g7
tp2901
(g15
g24
g9
g32
tp2902
tp2903
g4
tp2904
I1
s(((g1
g2
g3
g4
g7
g14
tp2905
(g6
g15
g9
tp2906
tp2907
g7
tp2908
I1
s(((g1
g2
g6
g3
g7
g14
g15
g20
g24
g8
g9
g32
tp2909
(ttp2910
g32
tp2911
I13
s(((g1
g6
g3
g7
g14
g15
tp2912
(g24
g9
g32
tp2913
tp2914
g15
tp2915
I10
s(((g1
g3
tp2916
(g4
g14
g20
g9
g32
tp2917
tp2918
g3
tp2919
I1
s(((g1
g2
g3
g7
tp2920
(g6
g15
g20
g9
tp2921
tp2922
g7
tp2923
I2
s(((g2
g4
tp2924
(g6
g3
g14
g8
g9
tp2925
tp2926
g4
tp2927
I10
s(((g1
g6
g3
g4
g14
g15
g20
g24
tp2928
(g9
g32
tp2929
tp2930
g24
tp2931
I10
s(((g1
g2
g6
g3
g4
g7
g14
g15
g20
g24
g8
g9
tp2932
(ttp2933
g4
tp2934
I32
s(((g1
g2
g3
g4
tp2935
(g6
g15
g24
g9
tp2936
tp2937
g4
tp2938
I20
s(((g1
g2
g6
g3
tp2939
(g4
g14
g15
g8
tp2940
tp2941
g3
tp2942
I1
s(((g2
g6
g3
g4
g7
g14
g15
g24
tp2943
(g9
g32
tp2944
tp2945
g24
tp2946
I3
s(((g1
g2
g3
g4
g7
g15
g20
g24
tp2947
(g6
g9
tp2948
tp2949
g24
tp2950
I20
s(((g1
g2
g3
g4
g7
g14
g8
g9
tp2951
(g6
g15
tp2952
tp2953
g8
tp2954
I3
s(((g1
g2
g3
g4
g7
g14
g15
g20
tp2955
(g6
g9
tp2956
tp2957
g4
tp2958
I15
s(((g1
g2
g3
g4
g7
g14
g15
g20
g8
g9
tp2959
(g6
tp2960
tp2961
g7
tp2962
I13
s(((g1
g2
g3
g4
g7
g15
tp2963
(g6
g14
g8
tp2964
tp2965
g15
tp2966
I10
s(((g1
g6
g3
g4
tp2967
(g2
g14
g20
g8
tp2968
tp2969
g4
tp2970
I10
s(((g1
g2
g4
g7
g14
g15
g20
g24
g8
g9
tp2971
(g6
tp2972
tp2973
g9
tp2974
I10
s(((g1
g2
g6
g3
g7
g14
g15
g20
g24
g32
tp2975
(g9
tp2976
tp2977
g32
tp2978
I10
s(((g1
g2
g6
g3
g4
g7
g15
g20
tp2979
(g24
g8
tp2980
tp2981
g20
tp2982
I1
s(((g1
g2
g3
g4
g7
g15
tp2983
(g6
g14
g9
tp2984
tp2985
g15
tp2986
I10
s(((g1
g2
g6
g3
g4
g15
g20
g24
tp2987
(g14
g32
tp2988
tp2989
g24
tp2990
I1
s(((g2
g4
g15
g8
tp2991
(g1
g6
g14
g9
tp2992
tp2993
g8
tp2994
I1
s(((g2
g3
g4
g7
g14
g15
g20
g8
tp2995
(g6
g9
tp2996
tp2997
g8
tp2998
I11
s(((g2
g3
g4
g7
g14
g15
tp2999
(g1
g6
g8
tp3000
tp3001
g15
tp3002
I10
s(((g1
g2
tp3003
(g6
g4
g14
g24
g8
tp3004
tp3005
g2
tp3006
I1
s(((g2
g6
g3
g4
g7
g14
g15
g20
tp3007
(g8
g32
tp3008
tp3009
g20
tp3010
I10
s(((g1
g2
g3
g4
g7
g14
tp3011
(g6
g8
g9
tp3012
tp3013
g7
tp3014
I12
s(((g1
g6
g3
g4
g7
g14
g20
g24
g8
g9
tp3015
(g32
tp3016
tp3017
g9
tp3018
I10
s(((g1
g6
g3
g4
g7
g15
g20
g24
g8
g9
tp3019
(g32
tp3020
tp3021
g9
tp3022
I10
s(((g1
g2
g6
g3
g4
g14
g15
g20
tp3023
(g9
g32
tp3024
tp3025
g15
tp3026
I2
s(((g1
g2
tp3027
(g6
g4
g14
g8
g9
tp3028
tp3029
g2
tp3030
I12
s(((g1
g6
g3
g4
g7
g14
g15
g20
g8
g9
tp3031
(g32
tp3032
tp3033
g9
tp3034
I10
s(((g1
g2
g3
g4
g7
g15
g20
g24
g8
g9
tp3035
(g6
tp3036
tp3037
g9
tp3038
I10
s(((g4
g20
tp3039
(g1
g6
g14
g8
g9
tp3040
tp3041
g20
tp3042
I3
s(((g1
g2
g6
g3
g4
g7
g14
g15
g20
g24
tp3043
(g9
tp3044
tp3045
g24
tp3046
I12
s(((g1
g2
tp3047
(g6
g7
g15
g20
g8
tp3048
tp3049
g2
tp3050
I10
s(((g1
g2
g3
g4
g14
g15
tp3051
(g6
g8
g9
tp3052
tp3053
g14
tp3054
I1
s(((g1
g2
g6
g3
tp3055
(g14
g15
g9
g32
tp3056
tp3057
g3
tp3058
I2
s(((g1
g2
tp3059
(g6
g7
g14
g8
g9
tp3060
tp3061
g2
tp3062
I2
s(((g1
g2
g3
g15
g20
g8
tp3063
(g6
g14
g9
tp3064
tp3065
g8
tp3066
I10
s(((g1
g6
g4
g7
tp3067
(g15
g8
g9
g32
tp3068
tp3069
g7
tp3070
I1
s(((g1
g2
g6
g4
g7
g14
g15
g20
tp3071
(g8
g9
tp3072
tp3073
g20
tp3074
I9
s(((g1
g2
g6
g3
tp3075
(g7
g15
g20
g32
tp3076
tp3077
g3
tp3078
I10
s(((g1
g2
g6
g3
g4
g7
g14
g15
tp3079
(g20
g9
tp3080
tp3081
g14
tp3082
I7
s(((g1
g2
g6
g3
g4
g14
g15
g20
tp3083
(g8
g32
tp3084
tp3085
g20
tp3086
I10
s(((g1
g2
g3
g4
g14
g15
tp3087
(g6
g7
g20
tp3088
tp3089
g15
tp3090
I2
s(((g1
g6
g4
g7
g14
g15
g20
g24
g8
g9
tp3091
(g32
tp3092
tp3093
g9
tp3094
I14
s(((g1
g2
g6
g4
tp3095
(g3
g14
g24
g8
tp3096
tp3097
g4
tp3098
I1
s(((g1
g2
g6
g3
g4
g7
g14
g15
g24
g8
tp3099
(g20
tp3100
tp3101
g8
tp3102
I10
s(((g2
g3
tp3103
(g1
g6
g15
g8
g9
tp3104
tp3105
g3
tp3106
I20
s(((g1
g2
g3
g4
g7
g14
g15
g20
tp3107
(g6
g9
tp3108
tp3109
g15
tp3110
I10
s(((g1
g2
g3
g4
g7
g15
g20
g8
tp3111
(g6
g9
tp3112
tp3113
g8
tp3114
I11
s(((g1
g2
g6
g3
tp3115
(g14
g24
g8
g9
tp3116
tp3117
g6
tp3118
I1
s(((g1
g2
g3
g4
g14
g15
tp3119
(g6
g20
g9
tp3120
tp3121
g14
tp3122
I1
s(((g1
g2
tp3123
(g4
g14
g20
g8
g9
tp3124
tp3125
g2
tp3126
I11
s(((g1
g2
g4
g7
tp3127
(g6
g15
g8
g9
tp3128
tp3129
g7
tp3130
I11
s(((g1
g2
g6
g3
g4
g7
g14
g24
tp3131
(g20
g8
tp3132
tp3133
g24
tp3134
I8
s(((g1
g2
g6
g3
g4
g14
tp3135
(g20
g8
g32
tp3136
tp3137
g14
tp3138
I10
s(((g1
g2
g6
g3
tp3139
(g7
g20
g24
g8
tp3140
tp3141
g3
tp3142
I10
s(((g1
g2
g6
g7
tp3143
(g14
g20
g8
g9
tp3144
tp3145
g7
tp3146
I1
s(((g1
g2
g3
g4
g7
g14
tp3147
(g20
g8
g9
tp3148
tp3149
g14
tp3150
I10
s(((g1
g2
g4
g14
tp3151
(g6
g3
g8
g9
tp3152
tp3153
g14
tp3154
I10
s(((g1
g2
g6
g3
g4
g7
g14
g15
g24
g8
g9
g32
tp3155
(ttp3156
g9
tp3157
I2
s(((g1
g2
tp3158
(g6
g7
g14
g20
g9
tp3159
tp3160
g2
tp3161
I5
s(((g1
g2
g3
g4
g7
g15
g20
g8
tp3162
(g6
g14
tp3163
tp3164
g8
tp3165
I10
s(((g1
g2
g3
g4
g7
g14
g15
g20
tp3166
(g6
g24
tp3167
tp3168
g20
tp3169
I5
s(((g1
g2
g6
g3
g7
g14
g15
g20
g24
g8
tp3170
(g32
tp3171
tp3172
g8
tp3173
I10
s(((g1
g2
tp3174
(g6
g14
g15
g24
g9
tp3175
tp3176
g2
tp3177
I2
s(((g2
g6
g3
g4
g7
g14
tp3178
(g1
g20
g8
tp3179
tp3180
g14
tp3181
I10
s(((g1
g2
g3
g4
g7
g14
g15
g20
tp3182
(g6
g9
tp3183
tp3184
g20
tp3185
I11
s(((g4
g14
g15
g20
tp3186
(g1
g2
g6
g9
tp3187
tp3188
g14
tp3189
I1
s(((g1
g2
g6
g3
g7
g14
g15
g20
g8
g9
tp3190
(g4
tp3191
tp3192
g8
tp3193
I1
s(((g1
g2
g6
g3
g4
g7
tp3194
(g20
g8
g9
tp3195
tp3196
g7
tp3197
I11
s(((g1
g2
g6
g3
g7
g14
tp3198
(g20
g8
g32
tp3199
tp3200
g14
tp3201
I10
s(((g1
g2
g6
g3
g4
g7
g14
g20
tp3202
(g8
g9
tp3203
tp3204
g20
tp3205
I11
s(((g1
g2
tp3206
(g3
g7
g14
g20
g9
tp3207
tp3208
g2
tp3209
I7
s(((g1
g2
g6
g3
g4
g7
g14
g20
g24
g8
g9
g32
tp3210
(ttp3211
g32
tp3212
I10
s(((g1
g2
g6
g3
g4
g7
tp3213
(g15
g24
g9
tp3214
tp3215
g7
tp3216
I10
s(((g1
g3
g4
g15
tp3217
(g2
g6
g20
g9
tp3218
tp3219
g15
tp3220
I1
s(((g2
g3
tp3221
(g1
g6
g4
g8
g9
tp3222
tp3223
g3
tp3224
I13
s(((g1
g2
tp3225
(g6
g4
g14
g20
g9
tp3226
tp3227
g2
tp3228
I11
s(((g1
g2
g6
g4
g7
g14
g15
g20
tp3229
(g3
g9
tp3230
tp3231
g20
tp3232
I9
s(((g1
g2
tp3233
(g6
g7
g15
g24
g9
tp3234
tp3235
g1
tp3236
I1
s(((g1
g2
g6
g3
tp3237
(g7
g15
g20
g8
tp3238
tp3239
g3
tp3240
I10
s(((g1
g2
g3
g7
g15
g20
tp3241
(g6
g24
g9
tp3242
tp3243
g20
tp3244
I1
s(((g2
g4
g14
g20
tp3245
(g1
g6
g15
g9
tp3246
tp3247
g14
tp3248
I1
s(((g1
g2
g4
g7
g14
g15
tp3249
(g6
g20
g9
tp3250
tp3251
g15
tp3252
I10
s(((g1
g2
g3
g4
tp3253
(g6
g14
g20
g9
tp3254
tp3255
g4
tp3256
I13
s(((g1
g3
g4
g7
g14
g15
tp3257
(g6
g24
g9
tp3258
tp3259
g15
tp3260
I10
s(((g1
g2
g3
g4
g7
g14
tp3261
(g6
g15
g9
tp3262
tp3263
g14
tp3264
I21
s(((g1
g2
g3
g4
g7
g14
g15
g20
g24
g8
tp3265
(g6
tp3266
tp3267
g24
tp3268
I1
s(((g2
g6
tp3269
(g1
g4
g14
g20
g8
tp3270
tp3271
g6
tp3272
I10
s(((g1
g2
tp3273
(g6
g4
g14
g20
g8
tp3274
tp3275
g2
tp3276
I12
s(((g2
g6
g3
g4
tp3277
(g14
g24
g8
g9
tp3278
tp3279
g4
tp3280
I1
s(((g2
g14
g15
g8
tp3281
(g1
g6
g4
g9
tp3282
tp3283
g15
tp3284
I1
s(((g1
g2
g6
g3
g4
g15
tp3285
(g20
g24
g9
tp3286
tp3287
g15
tp3288
I10
s(((g1
g2
tp3289
(g6
g3
g7
g15
g9
tp3290
tp3291
g2
tp3292
I3
s(((g1
g2
g4
g7
tp3293
(g6
g3
g15
g8
tp3294
tp3295
g7
tp3296
I10
s(((g1
g2
g3
g7
tp3297
(g6
g15
g8
g9
tp3298
tp3299
g7
tp3300
I11
s(((g1
g2
g3
g15
tp3301
(g6
g14
g20
g9
tp3302
tp3303
g15
tp3304
I3
s(((g14
g15
tp3305
(g1
g2
g6
g4
g9
tp3306
tp3307
g15
tp3308
I2
s(((g1
g2
tp3309
(g6
g4
g15
g20
g9
tp3310
tp3311
g2
tp3312
I20
s(((g1
g6
g3
g4
g7
g14
g15
g20
g24
g8
g9
g32
tp3313
(ttp3314
g8
tp3315
I8
s(((g1
g2
g3
g4
tp3316
(g6
g15
g20
g9
tp3317
tp3318
g2
tp3319
I11
s(((g1
g6
g3
g4
g7
g14
tp3320
(g20
g8
g32
tp3321
tp3322
g14
tp3323
I10
s(((g2
g3
g4
g14
g15
g8
tp3324
(g1
g6
g9
tp3325
tp3326
g8
tp3327
I18
s(((g1
g2
g6
g3
tp3328
(g14
g15
g24
g32
tp3329
tp3330
g3
tp3331
I1
s(((g1
g2
g6
g3
g4
g7
g14
g15
tp3332
(g24
g8
tp3333
tp3334
g15
tp3335
I10
s(((g1
g2
g4
g7
tp3336
(g6
g20
g8
g9
tp3337
tp3338
g7
tp3339
I1
s(((g1
g2
g6
g3
g4
g7
g14
g15
g20
g8
tp3340
(g24
tp3341
tp3342
g8
tp3343
I13
s(((g1
g2
tp3344
(g4
g15
g20
g8
g9
tp3345
tp3346
g2
tp3347
I1
s(((g2
g3
g4
g14
tp3348
(g1
g6
g8
g9
tp3349
tp3350
g14
tp3351
I10
s(((g1
g2
g6
g3
g4
g14
g15
g20
tp3352
(g24
g8
tp3353
tp3354
g20
tp3355
I1
s(((g1
g2
g6
g3
tp3356
(g4
g20
g8
g9
tp3357
tp3358
g3
tp3359
I2
s(((g1
g3
g4
g14
tp3360
(g2
g6
g15
g9
tp3361
tp3362
g14
tp3363
I1
s(((g1
g6
g3
g4
g7
g15
g20
g24
tp3364
(g9
g32
tp3365
tp3366
g24
tp3367
I10
s(((g1
g2
g3
g4
g7
g15
tp3368
(g6
g8
g9
tp3369
tp3370
g7
tp3371
I2
s(((g1
g2
tp3372
(g6
g14
g15
g24
g8
tp3373
tp3374
g2
tp3375
I1
s(((g1
g2
g6
g3
g4
g7
g15
g20
g24
g8
tp3376
(g9
tp3377
tp3378
g8
tp3379
I2
s(((g1
g2
g3
g4
g14
g8
tp3380
(g6
g15
g9
tp3381
tp3382
g8
tp3383
I5
s(((g1
g2
g6
g3
tp3384
(g14
g20
g8
g9
tp3385
tp3386
g6
tp3387
I9
s(((g2
g4
g15
g20
tp3388
(g1
g6
g14
g9
tp3389
tp3390
g20
tp3391
I10
s(((g1
g2
g3
g4
g7
g14
g15
g20
g24
g8
g9
g32
tp3392
(ttp3393
g8
tp3394
I11
s(((g1
g2
g3
g4
g7
g14
g15
g20
tp3395
(g8
g32
tp3396
tp3397
g20
tp3398
I10
s(((g1
g2
g3
g4
g14
g15
g20
g8
tp3399
(g6
g9
tp3400
tp3401
g15
tp3402
I15
s(((g1
g2
g3
g4
g7
g14
g20
g24
tp3403
(g6
g9
tp3404
tp3405
g24
tp3406
I20
s(((g1
g3
tp3407
(g6
g7
g20
g8
g9
tp3408
tp3409
g3
tp3410
I2
s(((g2
g4
g14
g15
g20
g8
tp3411
(g1
g6
g9
tp3412
tp3413
g2
tp3414
I85
s(((g1
g2
g6
g3
tp3415
(g4
g14
g20
g9
tp3416
tp3417
g3
tp3418
I10
s(((g1
g6
g4
g7
g14
g20
tp3419
(g24
g9
g32
tp3420
tp3421
g20
tp3422
I1
s(((g4
g14
tp3423
(g1
g2
g6
g15
g9
tp3424
tp3425
g14
tp3426
I20
s(((g2
g3
g4
g7
g14
g15
g20
g9
tp3427
(g1
g6
tp3428
tp3429
g9
tp3430
I1
s(((g1
g2
g3
g4
g7
g14
tp3431
(g6
g20
g9
tp3432
tp3433
g14
tp3434
I10
s(((g1
g2
g6
g4
tp3435
(g7
g20
g8
g9
tp3436
tp3437
g4
tp3438
I1
s(((g2
g6
g3
g4
g7
g14
g15
g20
g24
g8
g9
g32
tp3439
(ttp3440
g32
tp3441
I21
s(((g2
g3
g4
g14
tp3442
(g1
g6
g15
g9
tp3443
tp3444
g14
tp3445
I10
s(((g1
g2
g3
g4
g14
g15
g20
g8
tp3446
(g6
g9
tp3447
tp3448
g4
tp3449
I19
s(((g1
g2
g6
g3
g4
g14
g15
g20
g24
g8
tp3450
(g32
tp3451
tp3452
g8
tp3453
I10
s(((g1
g3
g4
g7
tp3454
(g6
g15
g8
g9
tp3455
tp3456
g7
tp3457
I10
s(((g1
g2
g6
g3
g7
g14
g15
g24
tp3458
(g9
g32
tp3459
tp3460
g24
tp3461
I3
s(((g2
g6
g3
g4
g7
g14
g15
g20
tp3462
(g1
g8
tp3463
tp3464
g20
tp3465
I10
s(((g1
g2
g6
g3
g4
g7
g14
g20
tp3466
(g8
g9
tp3467
tp3468
g14
tp3469
I1
s(((g2
g14
tp3470
(g1
g6
g4
g15
g9
tp3471
tp3472
g14
tp3473
I1
s(((g1
g2
tp3474
(g6
g4
g15
g8
g9
tp3475
tp3476
g2
tp3477
I11
s(((g1
g6
g3
g4
g7
g14
g15
g20
tp3478
(g8
g32
tp3479
tp3480
g20
tp3481
I10
s(((g1
g2
g6
g3
g7
g14
g15
g20
g24
g9
tp3482
(g32
tp3483
tp3484
g9
tp3485
I3
s(((g1
g2
tp3486
(g3
g7
g15
g20
g32
tp3487
tp3488
g2
tp3489
I10
s(((g2
g6
tp3490
(g4
g14
g24
g8
g9
tp3491
tp3492
g6
tp3493
I1
s(((g1
g2
tp3494
(g3
g4
g15
g20
g8
tp3495
tp3496
g2
tp3497
I10
s(((g1
g2
g3
g4
g7
g20
tp3498
(g6
g8
g9
tp3499
tp3500
g20
tp3501
I3
s(((g2
g4
g15
g20
tp3502
(g1
g6
g8
g9
tp3503
tp3504
g20
tp3505
I10
s(((g1
g2
g4
g7
g14
g15
g20
g8
tp3506
(g6
g9
tp3507
tp3508
g14
tp3509
I5
s(((g1
g2
g6
g3
g4
g14
g15
g20
g24
g8
tp3510
(g9
tp3511
tp3512
g8
tp3513
I10
s(((g1
g2
g3
g4
g7
g14
tp3514
(g6
g20
g8
tp3515
tp3516
g14
tp3517
I12
s(((g1
g2
tp3518
(g3
g14
g20
g24
g8
tp3519
tp3520
g2
tp3521
I9
s(((g1
g2
g6
g3
g4
g7
g15
g20
tp3522
(g8
g32
tp3523
tp3524
g20
tp3525
I10
s(((g1
g2
g3
g4
g7
g14
tp3526
(g6
g24
g9
tp3527
tp3528
g14
tp3529
I20
s(((g1
g6
g3
g4
tp3530
(g15
g20
g9
g32
tp3531
tp3532
g4
tp3533
I8
s(((g1
g2
g6
g3
g7
g14
tp3534
(g24
g8
g9
tp3535
tp3536
g14
tp3537
I3
s(((g1
g2
g3
g4
g14
g15
g20
g8
tp3538
(g6
g9
tp3539
tp3540
g2
tp3541
I12
s(((g1
g2
g3
g4
g7
g14
g20
g8
tp3542
(g6
g9
tp3543
tp3544
g8
tp3545
I13
s(((g1
g2
g6
g3
g4
g7
g14
g15
g20
g8
g9
g32
tp3546
(ttp3547
g8
tp3548
I12
s(((g1
g2
g3
g4
g7
g14
g15
g20
g24
g9
tp3549
(g8
tp3550
tp3551
g9
tp3552
I10
s(((g1
g2
tp3553
(g3
g14
g24
g8
g9
tp3554
tp3555
g1
tp3556
I1
s(((g1
g2
g4
g7
tp3557
(g6
g3
g20
g8
tp3558
tp3559
g7
tp3560
I1
s(((g1
g2
g6
g3
g4
g7
tp3561
(g15
g20
g8
tp3562
tp3563
g7
tp3564
I10
s(((g2
g6
g3
g4
g7
g14
g15
g20
g24
g32
tp3565
(g9
tp3566
tp3567
g32
tp3568
I3
s(((g1
g2
g6
g3
g4
g7
tp3569
(g15
g20
g24
tp3570
tp3571
g7
tp3572
I8
s(((g1
g2
g3
g4
tp3573
(g6
g14
g15
g9
tp3574
tp3575
g3
tp3576
I3
s(((g1
g2
g6
g3
tp3577
(g14
g20
g24
g9
tp3578
tp3579
g3
tp3580
I10
s(((g1
g2
g6
g3
tp3581
(g15
g20
g24
g9
tp3582
tp3583
g3
tp3584
I10
s(((g1
g2
g3
g7
g14
g15
tp3585
(g6
g4
g8
tp3586
tp3587
g15
tp3588
I10
s(((g1
g2
g6
g3
g4
g7
g14
g15
g20
g24
g8
g9
tp3589
(ttp3590
g8
tp3591
I10
s(((g1
g3
tp3592
(g6
g4
g15
g8
g9
tp3593
tp3594
g3
tp3595
I5
s(((g1
g2
g3
g4
g14
g15
g20
g8
tp3596
(g6
g9
tp3597
tp3598
g1
tp3599
I3677
s(((g1
g2
g6
g3
tp3600
(g7
g14
g8
g9
tp3601
tp3602
g3
tp3603
I4
s(((g2
g3
tp3604
(g1
g6
g7
g15
g8
tp3605
tp3606
g3
tp3607
I10
s(((g1
g2
tp3608
(g3
g7
g14
g8
g9
tp3609
tp3610
g2
tp3611
I4
s(((g1
g2
g6
g3
g7
g14
g15
g20
tp3612
(g8
g32
tp3613
tp3614
g20
tp3615
I10
s(((g1
g2
g6
g4
tp3616
(g3
g7
g20
g8
tp3617
tp3618
g4
tp3619
I1
s(((g1
g2
tp3620
(g3
g4
g15
g20
g9
tp3621
tp3622
g2
tp3623
I1
s(((g1
g2
g6
g3
g4
g7
g15
g20
g24
g8
tp3624
(g32
tp3625
tp3626
g8
tp3627
I10
s(((g2
g6
tp3628
(g4
g15
g20
g9
g32
tp3629
tp3630
g6
tp3631
I1
s(((g1
g2
g3
g4
g7
g14
g15
g20
g8
g9
tp3632
(g6
tp3633
tp3634
g4
tp3635
I11
s(((g1
g2
g6
g3
g4
g7
g14
g15
g20
g8
g9
g32
tp3636
(ttp3637
g9
tp3638
I10
s(((g1
g2
tp3639
(g6
g3
g15
g20
g9
tp3640
tp3641
g2
tp3642
I11
s(((g1
g2
g3
g14
tp3643
(g6
g4
g8
g9
tp3644
tp3645
g14
tp3646
I9
s(((g1
g2
tp3647
(g6
g4
g15
g24
g8
tp3648
tp3649
g2
tp3650
I10
s(((g1
g2
g3
g4
g14
g15
tp3651
(g6
g8
g9
tp3652
tp3653
g15
tp3654
I11
s(((g1
g2
g3
g4
g7
g20
tp3655
(g6
g15
g8
tp3656
tp3657
g7
tp3658
I1
s(((g1
g2
g3
g4
g7
g14
tp3659
(g6
g15
g8
tp3660
tp3661
g14
tp3662
I11
s(((g1
g2
g6
g3
g7
g14
g15
g20
g24
g9
tp3663
(g8
tp3664
tp3665
g9
tp3666
I4
s(((g4
g14
g15
g8
tp3667
(g1
g2
g6
g9
tp3668
tp3669
g8
tp3670
I11
s(((g14
g20
tp3671
(g1
g6
g4
g8
g9
tp3672
tp3673
g20
tp3674
I23
s(((g1
g3
g4
g7
tp3675
(g6
g15
g24
g9
tp3676
tp3677
g7
tp3678
I10
s(((g1
g2
g3
g7
g14
g15
tp3679
(g6
g8
g9
tp3680
tp3681
g15
tp3682
I10
s(((g4
g20
tp3683
(g1
g2
g6
g8
g9
tp3684
tp3685
g20
tp3686
I10
s(((g1
g2
g6
g4
g7
g14
tp3687
(g3
g20
g9
tp3688
tp3689
g14
tp3690
I9
s(((g1
g2
g3
g7
g14
g15
g20
g24
g8
g9
tp3691
(g6
tp3692
tp3693
g9
tp3694
I13
s(((g1
g2
g3
g7
g14
g20
tp3695
(g6
g4
g9
tp3696
tp3697
g20
tp3698
I4
s(((g1
g2
g6
g3
g7
g14
g15
g20
g8
g9
tp3699
(g4
tp3700
tp3701
g9
tp3702
I10
s(((g1
g3
tp3703
(g6
g4
g7
g15
g9
tp3704
tp3705
g3
tp3706
I2
s(((g3
g4
g14
g15
tp3707
(g1
g6
g8
g9
tp3708
tp3709
g15
tp3710
I10
s(((g2
g4
g14
g8
tp3711
(g1
g6
g20
g9
tp3712
tp3713
g8
tp3714
I4
s(((g1
g2
g6
g3
g7
g14
tp3715
(g4
g20
g8
tp3716
tp3717
g14
tp3718
I10
s(((g1
g6
g3
g4
g7
g14
g15
g20
g24
g8
g9
g32
tp3719
(ttp3720
g32
tp3721
I101
s(((g1
g2
g3
g4
g14
g15
g20
g24
tp3722
(g6
g8
tp3723
tp3724
g24
tp3725
I10
s(((g1
g2
g3
g4
g7
g14
tp3726
(g6
g15
g20
tp3727
tp3728
g14
tp3729
I3
s(((g1
g2
tp3730
(g3
g14
g15
g20
g9
tp3731
tp3732
g2
tp3733
I1
s(((g1
g2
g6
g3
tp3734
(g14
g15
g24
g9
tp3735
tp3736
g6
tp3737
I2
s(((g1
g2
g6
g3
g7
g14
g15
g20
tp3738
(g4
g24
tp3739
tp3740
g20
tp3741
I1
s(((g1
g2
g3
g4
g7
g14
tp3742
(g24
g8
g9
tp3743
tp3744
g14
tp3745
I9
s(((g1
g2
g6
g3
g4
g7
g14
g15
g20
g24
g8
g9
tp3746
(ttp3747
g3
tp3748
I22
s(((g1
g2
g6
g3
g4
g14
g15
g20
g24
g8
g9
g32
tp3749
(ttp3750
g14
tp3751
I13
s(((g2
g3
tp3752
(g6
g7
g20
g24
g9
tp3753
tp3754
g3
tp3755
I11
s(((g1
g2
g3
g4
g14
g15
g20
g8
tp3756
(g6
g24
tp3757
tp3758
g8
tp3759
I10
s(((g1
g2
g6
g3
tp3760
(g7
g14
g20
g9
tp3761
tp3762
g3
tp3763
I7
s(((g1
g2
g6
g3
g14
g15
g20
g24
tp3764
(g4
g9
tp3765
tp3766
g24
tp3767
I10
s(((g2
g6
g3
g4
tp3768
(g14
g20
g8
g9
tp3769
tp3770
g4
tp3771
I10
s(((g1
g2
g6
g4
g7
g14
tp3772
(g3
g24
g8
tp3773
tp3774
g14
tp3775
I1
s(((g1
g2
g6
g3
tp3776
(g7
g20
g8
g32
tp3777
tp3778
g3
tp3779
I10
s(((g1
g2
tp3780
(g6
g4
g7
g8
g9
tp3781
tp3782
g2
tp3783
I10
s(((g1
g2
g3
g4
g7
g14
g15
g20
tp3784
(g24
g9
tp3785
tp3786
g20
tp3787
I3
s(((g2
g4
tp3788
(g1
g6
g20
g8
g9
tp3789
tp3790
g4
tp3791
I20
s(((g1
g2
g3
g14
tp3792
(g6
g7
g8
g9
tp3793
tp3794
g14
tp3795
I1
s(((g1
g2
g3
g4
g7
g14
g15
g20
tp3796
(g6
g8
tp3797
tp3798
g14
tp3799
I2
s(((g1
g2
g4
g7
g14
g15
g20
g9
tp3800
(g6
g3
tp3801
tp3802
g9
tp3803
I2
s(((g1
g6
g4
g7
g14
g15
tp3804
(g24
g8
g32
tp3805
tp3806
g15
tp3807
I1
s(((g1
g3
g4
g7
g14
g15
g20
g8
tp3808
(g2
g6
tp3809
tp3810
g8
tp3811
I10
s(((g1
g2
g4
g15
tp3812
(g6
g3
g20
g9
tp3813
tp3814
g15
tp3815
I1
s(((g1
g2
g6
g3
g4
g7
g14
g15
g24
g8
tp3816
(g20
tp3817
tp3818
g24
tp3819
I1
s(((g1
g2
g3
g4
g7
g14
g15
g20
g8
g9
tp3820
(g6
tp3821
tp3822
g9
tp3823
I4002
s(((g1
g2
g3
g4
tp3824
(g6
g7
g15
g8
tp3825
tp3826
g4
tp3827
I11
s(((g1
g2
g6
g4
g7
g14
g15
g24
tp3828
(g3
g8
tp3829
tp3830
g24
tp3831
I1
s(((g1
g2
g6
g3
g7
g14
g15
g20
tp3832
(g4
g9
tp3833
tp3834
g15
tp3835
I9
s(((g1
g2
g3
g4
g7
g14
g15
g20
g24
g8
tp3836
(g9
tp3837
tp3838
g8
tp3839
I10
s(((g1
g2
tp3840
(g3
g14
g15
g24
g32
tp3841
tp3842
g2
tp3843
I1
s(((g1
g2
g3
g4
g7
g14
g15
g8
tp3844
(g6
g20
tp3845
tp3846
g15
tp3847
I1
s(((g1
g2
tp3848
(g6
g3
g7
g15
g8
tp3849
tp3850
g2
tp3851
I10
s(((g1
g2
tp3852
(g6
g4
g14
g15
g20
tp3853
tp3854
g2
tp3855
I3
s(((g1
g2
g6
g3
g4
g14
g15
g20
g24
g8
g9
g32
tp3856
(ttp3857
g6
tp3858
I10
s(dp3859
(g11
g4
tp3860
F4.0017930418415855
s(g17
g7
tp3861
F0.07510466448191197
s(g22
g9
tp3862
F9.574500065179013
s(g26
g1
tp3863
F-0.9993327822774103
s(g30
g14
tp3864
F-0.9990355766530147
s(g34
g24
tp3865
F0.13486067099438426
s(g38
g9
tp3866
F-0.16873329077622934
s(g42
g20
tp3867
F0.7425389117564434
s(g46
g20
tp3868
F0.8454893888558399
s(g50
g7
tp3869
F2.6519535231335567
s(g54
g4
tp3870
F1.4346916465735675
s(g58
g15
tp3871
F-0.7354549688337837
s(g62
g9
tp3872
F3.199509558799423
s(g66
g15
tp3873
F1.631277687523243
s(g69
g9
tp3874
F4.867264018615849
s(g73
g15
tp3875
F9.95597934583947
s(g77
g3
tp3876
F-0.6984825117740279
s(g81
g14
tp3877
F3.4657639999073973
s(g85
g2
tp3878
F1.847184003291528
s(g89
g4
tp3879
F5.815829990845115
s(g93
g20
tp3880
F4.4728555775262775
s(g97
g15
tp3881
F0.1900552441396619
s(g101
g20
tp3882
F19.981666094429155
s(g105
g6
tp3883
F14.271214800460445
s(g109
g14
tp3884
F17.807908775132663
s(g113
g3
tp3885
F1.0
s(g117
g20
tp3886
F-0.49007797962544775
s(g121
g4
tp3887
F1.0
s(g125
g7
tp3888
F14.562558010361622
s(g129
g14
tp3889
F14.931546726339446
s(g133
g2
tp3890
F-0.22028656589475742
s(g137
g15
tp3891
F-0.7097627072472807
s(g141
g15
tp3892
F0.4774123351789419
s(g145
g15
tp3893
F7.128893993358356
s(g149
g2
tp3894
F2.536742452031861
s(g153
g7
tp3895
F-0.9526743812643872
s(g157
g2
tp3896
F2.7590066363394805
s(g161
g2
tp3897
F2.096257717864181
s(g165
g20
tp3898
F3.4785452974028854
s(g169
g4
tp3899
F7.654140018948186
s(g172
g24
tp3900
F2.99
s(g176
g15
tp3901
F1.0541305592436805
s(g180
g24
tp3902
F1.3510763737117653
s(g184
g7
tp3903
F-0.4051649892146276
s(g188
g7
tp3904
F-0.3219052020104928
s(g192
g9
tp3905
F6.156860464627961
s(g196
g2
tp3906
F1.094296851890407
s(g200
g3
tp3907
F17.72001590363091
s(g204
g24
tp3908
F8.041713842905494
s(g208
g3
tp3909
F-0.659966304758553
s(g212
g14
tp3910
F1.0
s(g216
g9
tp3911
F7.1196901970780075
s(g220
g2
tp3912
F1.8507102423202175
s(g224
g20
tp3913
F19.284290021070124
s(g228
g15
tp3914
F-0.9384134593310566
s(g232
g4
tp3915
F-1.0
s(g236
g20
tp3916
F1.7714046285523755
s(g240
g3
tp3917
F5.259368957281568
s(g244
g9
tp3918
F-0.9866588644163223
s(g248
g4
tp3919
F-0.711026079093435
s(g252
g15
tp3920
F-1.0
s(g256
g2
tp3921
F13.39255335221947
s(g260
g4
tp3922
F0.7885903701568204
s(g264
g7
tp3923
F-1.0
s(g268
g4
tp3924
F3.7014156786921095
s(g272
g3
tp3925
F1.788563404276808
s(g276
g6
tp3926
F-1.0
s(g280
g9
tp3927
F12.305266440437087
s(g284
g7
tp3928
F15.008777264211263
s(g288
g20
tp3929
F5.58078078817122
s(g292
g15
tp3930
F-0.25115591046358166
s(g296
g8
tp3931
F-0.9999852485708782
s(g300
g4
tp3932
F2.12365523039148
s(g304
g15
tp3933
F-1.0
s(g308
g20
tp3934
F3.3489384320615647
s(g312
g2
tp3935
F1.0350414904705858
s(g316
g20
tp3936
F7.296886437553609
s(g319
g9
tp3937
F-0.34086376923656925
s(g323
g8
tp3938
F1.097385546612514
s(g327
g24
tp3939
F-1.0
s(g331
g2
tp3940
F8.682070342796429
s(g335
g2
tp3941
F0.48118419681921526
s(g339
g14
tp3942
F3.4406290249581244
s(g343
g4
tp3943
F0.34443025558694496
s(g347
g14
tp3944
F1.7375358901128664
s(g351
g4
tp3945
F0.8641306958593575
s(g355
g32
tp3946
F11.413801976471838
s(g359
g3
tp3947
F1.461017361608512
s(g363
g20
tp3948
F3.813064220890509
s(g367
g20
tp3949
F2.436854632121816
s(g371
g24
tp3950
F20.41213720443188
s(g374
g9
tp3951
F2.0
s(g378
g20
tp3952
F0.5083756502934705
s(g382
g3
tp3953
F-0.9999999993595
s(g386
g20
tp3954
F1.0
s(g390
g4
tp3955
F10.803487401573237
s(g394
g3
tp3956
F1.6975780766482438
s(g398
g15
tp3957
F-0.2414913200503827
s(g402
g3
tp3958
F3.0983399738837454
s(g406
g7
tp3959
F-0.9999999652920866
s(g410
g24
tp3960
F19.112170591735204
s(g414
g14
tp3961
F2.99
s(g418
g8
tp3962
F4.449798590707058
s(g422
g3
tp3963
F-0.6779095820304959
s(g426
g8
tp3964
F-0.9999999997094962
s(g430
g4
tp3965
F2.6622505443798783
s(g434
g20
tp3966
F5.00652039912794
s(g438
g7
tp3967
F-0.9999332124618674
s(g442
g24
tp3968
F-1.0
s(g446
g2
tp3969
F1.4956695787917589
s(g450
g4
tp3970
F3.99
s(g454
g2
tp3971
F1.1348606709943843
s(g458
g7
tp3972
F8.866234140164801
s(g462
g4
tp3973
F-1.0
s(g466
g7
tp3974
F1.0
s(g470
g2
tp3975
F-1.0
s(g474
g2
tp3976
F-0.995052976585609
s(g478
g20
tp3977
F16.953153648645685
s(g482
g2
tp3978
F-0.9811441792492506
s(g486
g9
tp3979
F5.737889066864555
s(g490
g7
tp3980
F3.8951890996600085
s(g494
g20
tp3981
F1.0
s(g498
g20
tp3982
F-0.6053528575761828
s(g502
g14
tp3983
F6.159579397534122
s(g506
g8
tp3984
F0.12919498544744012
s(g510
g7
tp3985
F-0.5584173699840054
s(g514
g8
tp3986
F-0.7357855380672187
s(g518
g1
tp3987
F3.5424436072609615
s(g522
g14
tp3988
F0.48587131544795203
s(g525
g8
tp3989
F2.970659370598961
s(g529
g24
tp3990
F1.0
s(g533
g7
tp3991
F-0.8653902434895028
s(g537
g8
tp3992
F6.657618321886751
s(g541
g8
tp3993
F0.8454893888558399
s(g545
g2
tp3994
F1.396494253191467
s(g549
g20
tp3995
F-0.9519701513721992
s(g553
g15
tp3996
F0.4801826188099548
s(g557
g6
tp3997
F8.500075283922664
s(g561
g4
tp3998
F1.290435513541564
s(g565
g4
tp3999
F3.315095902673002
s(g569
g2
tp4000
F2.677353797680201
s(g573
g4
tp4001
F-1.0
s(g577
g2
tp4002
F-1.0337046821697702
s(g581
g15
tp4003
F0.9589236661438288
s(g585
g20
tp4004
F-1.0
s(g589
g4
tp4005
F-0.02905476004452201
s(g593
g9
tp4006
F8.775557405251885
s(g597
g20
tp4007
F0.3559107058063855
s(g601
g32
tp4008
F-1.0
s(g605
g14
tp4009
F9.59176025800443
s(g609
g32
tp4010
F0.0
s(g613
g15
tp4011
F4.464611909093746
s(g617
g3
tp4012
F-0.9999999989588149
s(g621
g24
tp4013
F-0.9295909977966926
s(g625
g20
tp4014
F0.22541856573938657
s(g629
g3
tp4015
F1.0
s(g633
g2
tp4016
F1.4398924355528278
s(g637
g2
tp4017
F-0.20938518147004037
s(g641
g8
tp4018
F6.686780171888387
s(g645
g15
tp4019
F1.0
s(g649
g8
tp4020
F4.4763525546111085
s(g653
g2
tp4021
F1.9413300095877788
s(g657
g3
tp4022
F0.24014734791304226
s(g661
g14
tp4023
F3.7336539207369475
s(g665
g2
tp4024
F-0.14177457262133308
s(g669
g20
tp4025
F-0.28333745071527705
s(g673
g7
tp4026
F5.816646658615493
s(g677
g3
tp4027
F-0.9856607885892928
s(g681
g4
tp4028
F-0.5769077094069011
s(g685
g15
tp4029
F-1.0
s(g689
g15
tp4030
F-1.0
s(g693
g8
tp4031
F-0.5466272713673036
s(g697
g9
tp4032
F10.104204563650658
s(g701
g15
tp4033
F12.694137010095902
s(g705
g3
tp4034
F0.049700638517964
s(g709
g9
tp4035
F1.0279880756749311
s(g713
g2
tp4036
F-0.9999999996528682
s(g717
g20
tp4037
F-1.0
s(g720
g9
tp4038
F-0.676547695047617
s(g724
g8
tp4039
F-0.999999982385311
s(g728
g8
tp4040
F5.358025525738556
s(g732
g24
tp4041
F18.280558185852666
s(g736
g1
tp4042
F1.8991390258674332
s(g740
g8
tp4043
F-1.0
s(g744
g3
tp4044
F3.3354140993348698
s(g748
g8
tp4045
F5.434858559623983
s(g752
g7
tp4046
F2.0
s(g756
g4
tp4047
F-0.40097180788555065
s(g760
g20
tp4048
F-0.9917871028542027
s(g764
g14
tp4049
F3.435054909807119
s(g768
g20
tp4050
F-0.5045509993495951
s(g772
g6
tp4051
F1.4822749369498576
s(g776
g2
tp4052
F1.0
s(g780
g3
tp4053
F0.4122776188507924
s(g784
g2
tp4054
F1.2725045376564572
s(g788
g4
tp4055
F6.558217319411028
s(g792
g15
tp4056
F3.467053569129265
s(g796
g6
tp4057
F2.8454931203992544
s(g800
g14
tp4058
F1.0
s(g804
g20
tp4059
F5.362469360378355
s(g808
g4
tp4060
F0.2111090426515414
s(g812
g7
tp4061
F1.940485926369119
s(g816
g8
tp4062
F0.9282522941056417
s(g820
g15
tp4063
F-1.0
s(g824
g3
tp4064
F-1.445007421097208
s(g828
g7
tp4065
F-1.0
s(g832
g14
tp4066
F2.82452561420188
s(g836
g7
tp4067
F0.7772629015156453
s(g840
g15
tp4068
F0.4748006197950617
s(g844
g2
tp4069
F1.000328330712969
s(g848
g14
tp4070
F-1.0
s(g852
g2
tp4071
F-1.0
s(g856
g15
tp4072
F0.41837789371731526
s(g860
g2
tp4073
F0.0
s(g864
g7
tp4074
F-1.0
s(g868
g20
tp4075
F2.0
s(g872
g14
tp4076
F2.2103075414682167
s(g876
g7
tp4077
F18.903504152013923
s(g880
g3
tp4078
F5.485800657038652
s(g884
g24
tp4079
F3.267817334444326
s(g888
g9
tp4080
F11.36002815496952
s(g892
g8
tp4081
F-1.0
s(g896
g7
tp4082
F19.51867104548276
s(g900
g32
tp4083
F-1.0
s(g904
g2
tp4084
F8.839880270256208
s(g908
g3
tp4085
F2.0750919259950935
s(g912
g6
tp4086
F10.101224506386014
s(g915
g32
tp4087
F-0.9265383199500543
s(g919
g4
tp4088
F1.7156635802240725
s(g923
g7
tp4089
F-0.9999717770942143
s(g927
g20
tp4090
F1.7584972934893692
s(g931
g24
tp4091
F-0.9265383199500543
s(g935
g2
tp4092
F1.0209953656227913
s(g939
g8
tp4093
F-0.05861399861394012
s(g943
g8
tp4094
F0.9038636182583529
s(g946
g9
tp4095
F-0.29814328549189506
s(g950
g4
tp4096
F18.00587668771795
s(g954
g15
tp4097
F5.849533896137011
s(g958
g15
tp4098
F-0.9484955855223076
s(g962
g8
tp4099
F-0.7976533158380232
s(g966
g3
tp4100
F1.3563764997228511
s(g970
g2
tp4101
F-0.5949680773105264
s(g974
g15
tp4102
F-0.34948620925339213
s(g978
g15
tp4103
F-1.0
s(g982
g7
tp4104
F-0.9989061508906913
s(g986
g7
tp4105
F4.740898670791806
s(g990
g3
tp4106
F-0.9572857418018911
s(g994
g20
tp4107
F5.289775091211998
s(g998
g8
tp4108
F-0.798627522426516
s(g1002
g2
tp4109
F3.414467067388326
s(g1006
g20
tp4110
F0.15541200853782122
s(g1010
g20
tp4111
F1.0
s(g1014
g8
tp4112
F-1.0
s(g1018
g3
tp4113
F3.321002435157997
s(g1022
g14
tp4114
F-0.9997296887476639
s(g1026
g8
tp4115
F-0.8852983027778296
s(g1030
g9
tp4116
F2.99
s(g1034
g32
tp4117
F11.983028756302229
s(g1038
g32
tp4118
F-1.0
s(g1042
g15
tp4119
F0.4368260672533515
s(g1046
g15
tp4120
F-0.9999999995056833
s(g1050
g20
tp4121
F18.19973721980551
s(g1054
g6
tp4122
F5.6706523535522955
s(g1058
g15
tp4123
F5.885476711800065
s(g1062
g6
tp4124
F3.9082869804553746
s(g1066
g14
tp4125
F-0.7721464626873906
s(g1070
g2
tp4126
F2.8730198944904326
s(g1074
g1
tp4127
F4.821487266600753
s(g1078
g15
tp4128
F-1.0
s(g1082
g3
tp4129
F9.699447375400624
s(g1086
g7
tp4130
F1.0
s(g1090
g20
tp4131
F-0.7785211803115988
s(g1094
g9
tp4132
F0.8505303926257006
s(g1098
g14
tp4133
F12.001570444488328
s(g1102
g2
tp4134
F1.5557559939106547
s(g1106
g7
tp4135
F2.976585215058593
s(g1109
g32
tp4136
F-0.9999852485708782
s(g1113
g8
tp4137
F1.99
s(g1117
g4
tp4138
F2.6089048119922182
s(g1121
g20
tp4139
F0.882960659318166
s(g1125
g15
tp4140
F-0.999030931564739
s(g1129
g2
tp4141
F2.398621603182488
s(g1133
g20
tp4142
F5.330878381460084
s(g1136
g20
tp4143
F-0.9938881101228508
s(g1140
g7
tp4144
F-0.9906303013710018
s(g1144
g15
tp4145
F-0.72772825233582
s(g1148
g24
tp4146
F-1.0
s(g1152
g7
tp4147
F2.6125585399035716
s(g1155
g32
tp4148
F-1.0
s(g1159
g2
tp4149
F0.7934183044785436
s(g1163
g14
tp4150
F1.0
s(g1167
g15
tp4151
F1.2374438295508554
s(g1171
g20
tp4152
F8.628036103663296
s(g1174
g8
tp4153
F0.03154491096665435
s(g1178
g15
tp4154
F-1.0
s(g1182
g2
tp4155
F3.342065649027159
s(g1186
g24
tp4156
F19.58665427003901
s(g1190
g15
tp4157
F-1.0
s(g1194
g3
tp4158
F-0.9999452556908288
s(g1198
g2
tp4159
F2.0558222053361
s(g1202
g9
tp4160
F-0.7650577396181997
s(g1206
g2
tp4161
F0.0
s(g1210
g8
tp4162
F1.0339188105731831
s(g1214
g2
tp4163
F1.1985924107785222
s(g1218
g6
tp4164
F6.669512983654071
s(g1222
g4
tp4165
F1.0
s(g1226
g2
tp4166
F-0.6710244718137028
s(g1230
g20
tp4167
F-0.9996108830501947
s(g1234
g14
tp4168
F-1.0
s(g1238
g6
tp4169
F4.578017723796097
s(g1242
g15
tp4170
F0.4623129592670172
s(g1246
g14
tp4171
F1.7474124962858457
s(g1250
g14
tp4172
F1.2202889128931784
s(g1254
g7
tp4173
F1.0
s(g1258
g4
tp4174
F1.689254109985142
s(g1262
g8
tp4175
F2.0421903685862506
s(g1266
g4
tp4176
F1.0869609603859547
s(g1270
g14
tp4177
F-1.0
s(g1274
g4
tp4178
F-1.0
s(g1278
g14
tp4179
F-1.0
s(g1282
g2
tp4180
F3.370421694963303
s(g1286
g4
tp4181
F3.2340824138558015
s(g1290
g4
tp4182
F5.186710460969223
s(g1294
g14
tp4183
F2.99
s(g1298
g15
tp4184
F9.767983299231322
s(g1302
g4
tp4185
F3.4357890410490866
s(g1306
g4
tp4186
F-1.0
s(g1310
g3
tp4187
F0.2804563520469445
s(g1314
g14
tp4188
F4.336424344322635
s(g1318
g20
tp4189
F1.0
s(g1322
g24
tp4190
F1.99
s(g1326
g7
tp4191
F-0.865390243485997
s(g1330
g24
tp4192
F-0.9265383200016579
s(g1334
g20
tp4193
F-1.0
s(g1338
g9
tp4194
F9.580749101446541
s(g1342
g4
tp4195
F0.47738153117041193
s(g1346
g2
tp4196
F6.653688314080062
s(g1350
g14
tp4197
F21.247681006703665
s(g1354
g4
tp4198
F0.3694024495755485
s(g1358
g9
tp4199
F6.674144185271734
s(g1362
g2
tp4200
F18.178888053774017
s(g1366
g6
tp4201
F7.272640151815352
s(g1370
g24
tp4202
F6.356137809900226
s(g1374
g7
tp4203
F1.0
s(g1378
g4
tp4204
F1.4693417387786836
s(g1382
g2
tp4205
F1.5729693618796383
s(g1386
g2
tp4206
F-0.9273397571750038
s(g1390
g6
tp4207
F4.598470335534896
s(g1394
g20
tp4208
F-0.6174716186499598
s(g1398
g3
tp4209
F1.3439407900655238
s(g1402
g24
tp4210
F12.003625434321517
s(g1406
g1
tp4211
F-0.9278941830972122
s(g1410
g6
tp4212
F3.284479009714577
s(g1414
g24
tp4213
F5.890953627025082
s(g1418
g4
tp4214
F0.8303213933178539
s(g1422
g14
tp4215
F1.8074656040420978
s(g1426
g20
tp4216
F1.0
s(g1430
g6
tp4217
F1.7662256576385973
s(g1434
g3
tp4218
F4.29454312974487
s(g1438
g7
tp4219
F0.0
s(g1442
g2
tp4220
F3.756536331782015
s(g1445
g9
tp4221
F-0.33774586153956854
s(g1449
g8
tp4222
F-0.9384468914556301
s(g1453
g15
tp4223
F-1.0
s(g1457
g24
tp4224
F0.8454894186337492
s(g1461
g2
tp4225
F1.0
s(g1465
g8
tp4226
F1.1288099937225826
s(g1469
g2
tp4227
F0.871281051980922
s(g1473
g15
tp4228
F-0.9993879295066664
s(g1477
g2
tp4229
F-0.1545068796007455
s(g1480
g6
tp4230
F2.479479636581588
s(g1484
g3
tp4231
F1.3521295896104253
s(g1488
g4
tp4232
F-0.998284991169029
s(g1492
g32
tp4233
F-1.0
s(g1496
g14
tp4234
F4.174908382867422
s(g1500
g14
tp4235
F-1.0
s(g1503
g24
tp4236
F-0.9025791205546116
s(g1507
g7
tp4237
F4.296688777348697
s(g1511
g7
tp4238
F-0.6572701876363412
s(g1515
g20
tp4239
F-0.9999999999935599
s(g1519
g14
tp4240
F14.35060725914398
s(g1523
g15
tp4241
F1.4775256644672567
s(g1527
g8
tp4242
F-0.45298233186048
s(g1531
g15
tp4243
F-1.0
s(g1535
g9
tp4244
F0.9262927820303222
s(g1538
g9
tp4245
F2.8768348113318134
s(g1542
g7
tp4246
F-0.999999999005427
s(g1546
g14
tp4247
F1.0
s(g1550
g8
tp4248
F-0.9945196368332311
s(g1554
g4
tp4249
F3.4629797090441654
s(g1558
g8
tp4250
F-0.9590278335950888
s(g1562
g20
tp4251
F-1.0
s(g1566
g3
tp4252
F1.3203063480184647
s(g1570
g7
tp4253
F1.0
s(g1574
g7
tp4254
F0.39982615443515707
s(g1578
g2
tp4255
F2.1865081698511664
s(g1582
g3
tp4256
F-0.7603374772714626
s(g1586
g2
tp4257
F1.7801003109193103
s(g1590
g2
tp4258
F10.72418240901925
s(g1594
g14
tp4259
F-1.0
s(g1598
g2
tp4260
F2.1014893774580248
s(g1602
g4
tp4261
F1.5211781024042488
s(g1606
g8
tp4262
F-0.8310821073185777
s(g1610
g6
tp4263
F2.924234952487513
s(g1614
g20
tp4264
F2.0
s(g1618
g2
tp4265
F3.960399
s(g1622
g8
tp4266
F-0.5507077081524141
s(g1626
g9
tp4267
F2.8455947338010272
s(g1630
g3
tp4268
F-1.0
s(g1634
g3
tp4269
F10.010894607580708
s(g1638
g2
tp4270
F3.41432488623561
s(g1642
g15
tp4271
F1.0
s(g1646
g9
tp4272
F-0.9946907248327165
s(g1650
g3
tp4273
F2.3906062597644615
s(g1654
g14
tp4274
F3.3200162146733323
s(g1658
g15
tp4275
F8.430438200257612
s(g1662
g2
tp4276
F1.0
s(g1666
g20
tp4277
F-1.0
s(g1670
g3
tp4278
F18.435057068324372
s(g1674
g3
tp4279
F-0.9999982963751057
s(g1678
g8
tp4280
F-0.9999999999964944
s(g1682
g8
tp4281
F0.883212375953923
s(g1686
g3
tp4282
F-1.0
s(g1690
g2
tp4283
F3.3959167358007734
s(g1694
g3
tp4284
F9.760340759146192
s(g1697
g14
tp4285
F-1.0
s(g1701
g9
tp4286
F12.293261038955709
s(g1705
g15
tp4287
F0.9504087639530461
s(g1709
g3
tp4288
F-1.0
s(g1713
g3
tp4289
F3.451057539296945
s(g1717
g20
tp4290
F-0.9949589962301393
s(g1721
g20
tp4291
F-0.8806413889014484
s(g1725
g8
tp4292
F-0.9890527430903255
s(g1729
g3
tp4293
F-0.760313542957447
s(g1733
g20
tp4294
F-0.9999999999964944
s(g1737
g2
tp4295
F1.9637316494384343
s(g1741
g3
tp4296
F-0.9856607885892928
s(g1745
g7
tp4297
F-0.9524599509871039
s(g1749
g20
tp4298
F3.159727199918596
s(g1753
g2
tp4299
F-0.9950529765823085
s(g1757
g20
tp4300
F3.6991613442595694
s(g1761
g15
tp4301
F-0.9999994240260215
s(g1765
g7
tp4302
F9.885823076854646
s(g1769
g4
tp4303
F-1.0
s(g1773
g1
tp4304
F2.0
s(g1777
g24
tp4305
F12.210911898303412
s(g1781
g20
tp4306
F0.5009900162596723
s(g1785
g20
tp4307
F0.0
s(g1789
g7
tp4308
F1.0
s(g1793
g15
tp4309
F-0.9416905304026848
s(g1797
g3
tp4310
F-0.9012837923328703
s(g1801
g24
tp4311
F1.0385082906823688
s(g1805
g7
tp4312
F1.0
s(g1809
g14
tp4313
F0.8554927997708384
s(g1812
g7
tp4314
F-0.9999999999964944
s(g1816
g8
tp4315
F-0.6718106720459054
s(g1820
g2
tp4316
F3.786211843422147
s(g1824
g14
tp4317
F0.9223400462314426
s(g1828
g14
tp4318
F-0.700767237069928
s(g1832
g3
tp4319
F1.4303607657580113
s(g1836
g15
tp4320
F0.8925502914933325
s(g1840
g20
tp4321
F1.0
s(g1844
g3
tp4322
F-1.0
s(g1848
g9
tp4323
F10.457915982108036
s(g1852
g4
tp4324
F3.4294209858984726
s(g1856
g9
tp4325
F-1.0
s(g1860
g3
tp4326
F0.40240908385941837
s(g1864
g3
tp4327
F13.293952761517906
s(g1868
g20
tp4328
F0.0
s(g1872
g4
tp4329
F13.18335605962476
s(g1876
g4
tp4330
F5.917122196186702
s(g1880
g20
tp4331
F-0.8613820387778494
s(g1884
g14
tp4332
F1.4843788037854437
s(g1887
g9
tp4333
F-0.5007882236697361
s(g1891
g6
tp4334
F4.825757954796204
s(g1895
g4
tp4335
F11.21469998237381
s(g1899
g20
tp4336
F4.447330837688153
s(g1903
g3
tp4337
F-0.7923916977631809
s(g1907
g7
tp4338
F4.909002050947699
s(g1911
g20
tp4339
F-0.9999999647635931
s(g1915
g24
tp4340
F8.367399659583668
s(g1919
g15
tp4341
F-0.7607374655768773
s(g1923
g32
tp4342
F-1.0
s(g1927
g20
tp4343
F4.4316866155829695
s(g1931
g9
tp4344
F10.849802482688034
s(g1935
g15
tp4345
F-1.0
s(g1939
g2
tp4346
F4.291311071896029
s(g1943
g3
tp4347
F-1.0
s(g1947
g7
tp4348
F1.0
s(g1951
g14
tp4349
F-1.0
s(g1955
g7
tp4350
F4.833051822134219
s(g1959
g14
tp4351
F1.0
s(g1963
g6
tp4352
F4.172013033304214
s(g1967
g3
tp4353
F3.343445397807285
s(g1971
g15
tp4354
F5.604387906718332
s(g1974
g9
tp4355
F6.671187111838557
s(g1978
g4
tp4356
F-0.9992008996929425
s(g1982
g15
tp4357
F-1.0
s(g1986
g14
tp4358
F3.98
s(g1990
g15
tp4359
F1.47740873548233
s(g1994
g24
tp4360
F4.0705786738948255
s(g1998
g14
tp4361
F1.0
s(g2002
g2
tp4362
F13.538702658368022
s(g2006
g7
tp4363
F2.660912782004627
s(g2010
g9
tp4364
F-0.9758498095100206
s(g2014
g4
tp4365
F-0.46344557869478376
s(g2018
g20
tp4366
F5.448689973859035
s(g2022
g4
tp4367
F3.0248955710262635
s(g2026
g6
tp4368
F3.2357275061563833
s(g2030
g24
tp4369
F11.291204184974864
s(g2034
g4
tp4370
F2.0
s(g2038
g15
tp4371
F10.231416956613351
s(g2041
g32
tp4372
F-0.999999982385311
s(g2045
g14
tp4373
F6.359989110669025
s(g2049
g2
tp4374
F0.28157146026295066
s(g2053
g8
tp4375
F-0.999999406232226
s(g2057
g8
tp4376
F-0.9957527093308601
s(g2061
g15
tp4377
F2.0
s(g2065
g9
tp4378
F8.734017790169133
s(g2069
g8
tp4379
F-0.5060571883396796
s(g2073
g2
tp4380
F2.096257717864181
s(g2077
g14
tp4381
F10.123115045291032
s(g2081
g20
tp4382
F2.0
s(g2085
g15
tp4383
F3.478531474179588
s(g2089
g2
tp4384
F-0.15450687960020384
s(g2093
g8
tp4385
F1.0497242822269959
s(g2097
g8
tp4386
F4.442842154011102
s(g2101
g6
tp4387
F5.522911458663633
s(g2105
g7
tp4388
F-0.9061117924002858
s(g2109
g2
tp4389
F4.064155844982688
s(g2113
g14
tp4390
F1.0
s(g2116
g9
tp4391
F2.0
s(g2120
g2
tp4392
F0.9806036106260172
s(g2124
g2
tp4393
F4.588622953967391
s(g2128
g2
tp4394
F3.4089176423116
s(g2132
g3
tp4395
F2.4293105459984723
s(g2136
g20
tp4396
F-0.600173845282243
s(g2140
g7
tp4397
F-0.5486608877885866
s(g2144
g4
tp4398
F4.546812121863157
s(g2148
g2
tp4399
F1.8558623730432648
s(g2152
g20
tp4400
F17.76545454018647
s(g2156
g20
tp4401
F0.8668015689079267
s(g2160
g3
tp4402
F4.702171097507337
s(g2164
g1
tp4403
F3.7652837406704798
s(g2168
g14
tp4404
F-0.9902732793054938
s(g2172
g15
tp4405
F0.1031733348637234
s(g2176
g4
tp4406
F0.455712279633959
s(g2180
g6
tp4407
F4.908343154715936
s(g2184
g14
tp4408
F-0.9999999984303214
s(g2188
g3
tp4409
F3.3056592811319936
s(g2192
g2
tp4410
F0.8454899647112226
s(g2196
g2
tp4411
F3.292625619744233
s(g2200
g15
tp4412
F4.776898227826062
s(g2204
g15
tp4413
F0.8588558293277238
s(g2208
g4
tp4414
F-0.8591609903809352
s(g2212
g14
tp4415
F1.0
s(g2216
g14
tp4416
F0.911965833425179
s(g2220
g15
tp4417
F-0.2052803496950213
s(g2224
g1
tp4418
F2.609793999874111
s(g2228
g3
tp4419
F10.326989748383129
s(g2232
g20
tp4420
F1.6254331171647407
s(g2236
g20
tp4421
F8.707396043926167
s(g2240
g15
tp4422
F2.0
s(g2244
g2
tp4423
F3.4520624749251194
s(g2248
g2
tp4424
F-0.7892249254138352
s(g2252
g20
tp4425
F-0.47869547830510717
s(g2256
g6
tp4426
F6.45737413485903
s(g2260
g24
tp4427
F0.9157704800100799
s(g2264
g1
tp4428
F-0.8215625125129098
s(g2267
g3
tp4429
F-0.26187102744498425
s(g2271
g4
tp4430
F3.921358021065465
s(g2275
g20
tp4431
F0.0
s(g2279
g7
tp4432
F-1.0
s(g2283
g6
tp4433
F3.988513286839032
s(g2287
g14
tp4434
F1.0
s(g2291
g4
tp4435
F2.9665676643203027
s(g2295
g24
tp4436
F1.0
s(g2299
g14
tp4437
F4.474643823498107
s(g2303
g7
tp4438
F1.6677670023555151
s(g2307
g14
tp4439
F0.0
s(g2311
g14
tp4440
F1.8233755477918683
s(g2315
g2
tp4441
F9.647603581351422
s(g2319
g8
tp4442
F0.12371565581834454
s(g2323
g4
tp4443
F-1.0
s(g2327
g14
tp4444
F-1.0
s(g2331
g2
tp4445
F0.8454893888558399
s(g2335
g2
tp4446
F0.845510099875096
s(g2339
g2
tp4447
F3.4783845134227906
s(g2343
g20
tp4448
F18.942161213654895
s(g2347
g3
tp4449
F-0.9999811822426502
s(g2351
g8
tp4450
F2.323649872794359
s(g2355
g2
tp4451
F3.5498725614560236
s(g2359
g7
tp4452
F18.62643278008655
s(g2363
g20
tp4453
F1.0
s(g2366
g2
tp4454
F-0.9999999490163797
s(g2370
g4
tp4455
F1.756563985982592
s(g2374
g4
tp4456
F3.2346045498909657
s(g2378
g3
tp4457
F3.4404424988989786
s(g2382
g2
tp4458
F1.599716462773672
s(g2386
g15
tp4459
F1.4901824261208423
s(g2390
g15
tp4460
F1.0133923195821832
s(g2394
g20
tp4461
F1.0
s(g2398
g8
tp4462
F-0.5016847917031182
s(g2402
g8
tp4463
F2.0943638041519295
s(g2406
g20
tp4464
F5.169766078134877
s(g2409
g32
tp4465
F-0.05861399861394012
s(g2413
g7
tp4466
F4.159842307271688
s(g2417
g6
tp4467
F-1.0
s(g2421
g2
tp4468
F-0.8961202564588189
s(g2425
g6
tp4469
F1.0
s(g2429
g15
tp4470
F-1.0
s(g2433
g14
tp4471
F1.4799523239967936
s(g2437
g8
tp4472
F1.9445943315301277
s(g2441
g15
tp4473
F10.887741768363647
s(g2445
g4
tp4474
F3.190183112562976
s(g2449
g6
tp4475
F10.961612345183537
s(g2453
g3
tp4476
F3.4335498028492935
s(g2457
g32
tp4477
F-1.0
s(g2461
g2
tp4478
F2.382928961604954
s(g2465
g8
tp4479
F2.080930006479881
s(g2469
g14
tp4480
F0.0006467881715034179
s(g2473
g2
tp4481
F2.0615040208101147
s(g2477
g20
tp4482
F-1.0
s(g2481
g20
tp4483
F-0.5928913210518827
s(g2485
g7
tp4484
F-1.0
s(g2489
g4
tp4485
F-0.49564436143768775
s(g2493
g15
tp4486
F1.0567013543069517
s(g2497
g2
tp4487
F-1.0
s(g2501
g15
tp4488
F2.461084304004828
s(g2505
g3
tp4489
F-0.7247758789585781
s(g2509
g14
tp4490
F2.593606937287488
s(g2513
g4
tp4491
F6.214354607218175
s(g2517
g9
tp4492
F1.3183906284479572
s(g2521
g14
tp4493
F-0.9708721520098168
s(g2525
g8
tp4494
F2.0
s(g2529
g14
tp4495
F4.117889112294323
s(g2532
g4
tp4496
F0.8507102423202175
s(g2535
g15
tp4497
F0.8505303926257006
s(g2539
g24
tp4498
F8.76553133718973
s(g2543
g3
tp4499
F-0.999999999986519
s(g2547
g9
tp4500
F11.439112832706797
s(g2551
g8
tp4501
F4.437865102433358
s(g2555
g8
tp4502
F3.5150278212712216
s(g2559
g3
tp4503
F3.7678544747768883
s(g2563
g15
tp4504
F3.477495040284995
s(g2567
g4
tp4505
F3.4053406373140906
s(g2571
g14
tp4506
F0.8641418952343094
s(g2575
g6
tp4507
F-0.15450687953960413
s(g2579
g8
tp4508
F1.310152277548958
s(g2583
g14
tp4509
F2.632916101770377
s(g2587
g2
tp4510
F0.9154318448998031
s(g2591
g8
tp4511
F0.918951661964446
s(g2595
g4
tp4512
F11.523417376348887
s(g2599
g2
tp4513
F3.5534910109970714
s(g2603
g24
tp4514
F1.8729975050829744
s(g2607
g4
tp4515
F5.963801300339178
s(g2611
g3
tp4516
F2.0
s(g2615
g15
tp4517
F-0.5512476862056834
s(g2619
g9
tp4518
F2.3213020132851687
s(g2623
g3
tp4519
F-0.8397609637860679
s(g2627
g3
tp4520
F1.0257337841078333
s(g2631
g14
tp4521
F11.835067781110252
s(g2635
g6
tp4522
F9.51920739849065
s(g2638
g24
tp4523
F6.473986990049511
s(g2641
g32
tp4524
F-0.054125016123687586
s(g2645
g4
tp4525
F1.0
s(g2649
g15
tp4526
F-0.6233491983326811
s(g2653
g7
tp4527
F3.259705604456709
s(g2657
g4
tp4528
F-1.0
s(g2661
g20
tp4529
F4.3105583782726065
s(g2665
g15
tp4530
F1.3765658720513643
s(g2669
g15
tp4531
F4.421648808446597
s(g2673
g3
tp4532
F2.081560989460762
s(g2677
g14
tp4533
F2.6075893375439985
s(g2680
g15
tp4534
F-0.9997020214303277
s(g2684
g3
tp4535
F5.133817873481057
s(g2688
g1
tp4536
F-1.0
s(g2692
g8
tp4537
F0.4816689008883699
s(g2696
g4
tp4538
F-0.9082100850559192
s(g2699
g32
tp4539
F0.845489389808959
s(g2703
g4
tp4540
F-1.0
s(g2707
g4
tp4541
F-0.7424522826410294
s(g2711
g20
tp4542
F0.611631704264016
s(g2715
g2
tp4543
F6.694635140518119
s(g2719
g2
tp4544
F-0.15450687959373416
s(g2723
g4
tp4545
F0.8260626598360337
s(g2727
g15
tp4546
F-1.0
s(g2731
g6
tp4547
F0.35661845900548705
s(g2734
g8
tp4548
F-0.9265383200016579
s(g2738
g8
tp4549
F1.0193971457574236
s(g2742
g8
tp4550
F3.0
s(g2745
g20
tp4551
F-0.9149754729735594
s(g2749
g24
tp4552
F1.0247546619778032
s(g2753
g15
tp4553
F-1.0
s(g2757
g6
tp4554
F13.622071153101833
s(g2761
g20
tp4555
F2.0
s(g2765
g32
tp4556
F13.678394435351702
s(g2769
g14
tp4557
F0.47743537077427883
s(g2772
g20
tp4558
F7.773864713750548
s(g2776
g20
tp4559
F1.0134944801125847
s(g2780
g2
tp4560
F5.500449749102919
s(g2784
g4
tp4561
F5.637210321238559
s(g2788
g15
tp4562
F3.8228144868239564
s(g2792
g14
tp4563
F0.7710966506798265
s(g2796
g7
tp4564
F-1.0
s(g2800
g4
tp4565
F4.475624633993867
s(g2804
g4
tp4566
F4.4211774186797115
s(g2808
g24
tp4567
F1.5044929598055345
s(g2812
g3
tp4568
F1.6871073944168224
s(g2816
g20
tp4569
F-0.5263398859720874
s(g2820
g20
tp4570
F0.21259917680568607
s(g2824
g8
tp4571
F5.070982323315881
s(g2828
g14
tp4572
F0.3908340236086706
s(g2832
g14
tp4573
F1.4747667012682577
s(g2836
g4
tp4574
F-1.0
s(g2839
g32
tp4575
F-0.9949589962301393
s(g2843
g3
tp4576
F-0.5895879772877102
s(g2847
g14
tp4577
F0.6380970434006563
s(g2851
g7
tp4578
F4.362734189252886
s(g2855
g20
tp4579
F-1.0
s(g2859
g14
tp4580
F-1.0
s(g2863
g3
tp4581
F3.198238554065356
s(g2867
g9
tp4582
F7.826082448836621
s(g2871
g2
tp4583
F-0.30501857808230726
s(g2875
g3
tp4584
F3.312844428115608
s(g2879
g8
tp4585
F2.0294182671990106
s(g2883
g7
tp4586
F4.975699874687291
s(g2887
g2
tp4587
F-1.0
s(g2891
g8
tp4588
F-1.0
s(g2895
g15
tp4589
F0.7124529240634403
s(g2899
g14
tp4590
F1.4790477809962401
s(g2903
g4
tp4591
F10.31767925744088
s(g2907
g7
tp4592
F-1.0
s(g2910
g32
tp4593
F1.0962577178641812
s(g2914
g15
tp4594
F11.676594743029172
s(g2918
g3
tp4595
F3.2003150420418427
s(g2922
g7
tp4596
F2.5757697328010902
s(g2926
g4
tp4597
F3.281715079711327
s(g2930
g24
tp4598
F9.386622932556428
s(g2933
g4
tp4599
F-0.7011874260389065
s(g2937
g4
tp4600
F11.69543327614375
s(g2941
g3
tp4601
F3.187688693769652
s(g2945
g24
tp4602
F2.99
s(g2949
g24
tp4603
F16.982667040694892
s(g2953
g8
tp4604
F-0.421231962093227
s(g2957
g4
tp4605
F6.061467987957961
s(g2961
g7
tp4606
F-0.972783839734523
s(g2965
g15
tp4607
F-0.9141754007644265
s(g2969
g4
tp4608
F-0.9999999992953246
s(g2973
g9
tp4609
F5.1508708606116915
s(g2977
g32
tp4610
F2.919623664525434
s(g2981
g20
tp4611
F3.218833803029531
s(g2985
g15
tp4612
F-0.35742504706976974
s(g2989
g24
tp4613
F-1.0
s(g2993
g8
tp4614
F-1.0
s(g2997
g8
tp4615
F1.4982242463340576
s(g3001
g15
tp4616
F-0.9867589422506551
s(g3005
g2
tp4617
F2.5253896683262007
s(g3009
g20
tp4618
F5.432986016358901
s(g3013
g7
tp4619
F1.2974780519134486
s(g3017
g9
tp4620
F12.320448272309978
s(g3021
g9
tp4621
F10.406410017114434
s(g3025
g15
tp4622
F-1.0
s(g3029
g2
tp4623
F1.602261994894584
s(g3033
g9
tp4624
F9.95364588890061
s(g3037
g9
tp4625
F11.816588075479133
s(g3041
g20
tp4626
F1.4776462006860311
s(g3045
g24
tp4627
F0.1270738823692521
s(g3049
g2
tp4628
F-0.15504080067758497
s(g3053
g14
tp4629
F1.0
s(g3057
g3
tp4630
F0.4641764119713998
s(g3061
g2
tp4631
F3.860207408089808
s(g3065
g8
tp4632
F-0.037667793144032125
s(g3069
g7
tp4633
F-1.0
s(g3073
g20
tp4634
F4.293801455559626
s(g3077
g3
tp4635
F-0.999146784065684
s(g3081
g14
tp4636
F6.286733316435514
s(g3085
g20
tp4637
F-0.0585507162957718
s(g3089
g15
tp4638
F-1.0
s(g3093
g9
tp4639
F-0.12538528126417514
s(g3097
g4
tp4640
F1.0
s(g3101
g8
tp4641
F-0.017158125170210314
s(g3105
g3
tp4642
F1.7649399926716374
s(g3109
g15
tp4643
F-0.0010168776521157774
s(g3113
g8
tp4644
F4.042227916552922
s(g3117
g6
tp4645
F1.0
s(g3121
g14
tp4646
F-0.5701354554620606
s(g3125
g2
tp4647
F0.9532573262448698
s(g3129
g7
tp4648
F0.7419425623641182
s(g3133
g24
tp4649
F-0.056924179152725185
s(g3137
g14
tp4650
F0.7009652940410429
s(g3141
g3
tp4651
F-0.20009390973747188
s(g3145
g7
tp4652
F1.0
s(g3149
g14
tp4653
F3.7056481615545183
s(g3153
g14
tp4654
F0.8586241888226245
s(g3156
g9
tp4655
F3.0
s(g3160
g2
tp4656
F1.5118323042901143
s(g3164
g8
tp4657
F-0.9991468360664085
s(g3168
g20
tp4658
F16.130098156793487
s(g3172
g8
tp4659
F2.880488848998591
s(g3176
g2
tp4660
F-0.020000000000000018
s(g3180
g14
tp4661
F-0.996780174991338
s(g3184
g20
tp4662
F-0.42814509003334233
s(g3188
g14
tp4663
F2.477473277632202
s(g3192
g8
tp4664
F-0.1545106111441601
s(g3196
g7
tp4665
F-0.6660960578090647
s(g3200
g14
tp4666
F2.6213956758262467
s(g3204
g20
tp4667
F1.080930006479881
s(g3208
g2
tp4668
F4.529554816543937
s(g3211
g32
tp4669
F0.9370110509228036
s(g3215
g7
tp4670
F3.1201377425108485
s(g3219
g15
tp4671
F2.1784212208083398
s(g3223
g3
tp4672
F3.230299284458968
s(g3227
g2
tp4673
F3.3216718819898037
s(g3231
g20
tp4674
F-0.8864969411555884
s(g3235
g1
tp4675
F1.5373440640706852
s(g3239
g3
tp4676
F-1.0
s(g3243
g20
tp4677
F18.655158369808195
s(g3247
g14
tp4678
F1.0
s(g3251
g15
tp4679
F-0.5318084176117426
s(g3255
g4
tp4680
F0.4108392228171821
s(g3259
g15
tp4681
F5.41611806656122
s(g3263
g14
tp4682
F-0.2847760395141621
s(g3267
g24
tp4683
F1.0
s(g3271
g6
tp4684
F-0.15438404875737735
s(g3275
g2
tp4685
F5.823894390450782
s(g3279
g4
tp4686
F1.0
s(g3283
g15
tp4687
F-1.0
s(g3287
g15
tp4688
F-0.9899898415281094
s(g3291
g2
tp4689
F3.719981698615783
s(g3295
g7
tp4690
F2.706917211961039
s(g3299
g7
tp4691
F-0.5758494721539318
s(g3303
g15
tp4692
F0.42946879681892836
s(g3307
g15
tp4693
F3.4773566387779185
s(g3311
g2
tp4694
F3.0331802654001683
s(g3314
g8
tp4695
F8.78583220353113
s(g3318
g2
tp4696
F0.5343258956478201
s(g3322
g14
tp4697
F2.596420625715095
s(g3326
g8
tp4698
F0.5239855810682594
s(g3330
g3
tp4699
F-1.0
s(g3334
g15
tp4700
F-0.24149132014385846
s(g3338
g7
tp4701
F1.0
s(g3342
g8
tp4702
F-0.23617899064082604
s(g3346
g2
tp4703
F1.0
s(g3350
g14
tp4704
F0.7439060258204409
s(g3354
g20
tp4705
F-1.0
s(g3358
g3
tp4706
F2.787706937708231
s(g3362
g14
tp4707
F-1.0
s(g3366
g24
tp4708
F10.90227569919488
s(g3370
g7
tp4709
F2.7612459192961367
s(g3374
g2
tp4710
F2.7075808435922557
s(g3378
g8
tp4711
F3.0
s(g3382
g8
tp4712
F-0.17353815747536294
s(g3386
g6
tp4713
F4.309498761122105
s(g3390
g20
tp4714
F0.5010826153315837
s(g3393
g8
tp4715
F-0.5335255255580202
s(g3397
g20
tp4716
F-0.05861399861394012
s(g3401
g15
tp4717
F-0.7373439072970953
s(g3405
g24
tp4718
F13.841472420199821
s(g3409
g3
tp4719
F3.3634908398934806
s(g3413
g2
tp4720
F-0.49195822650131094
s(g3417
g3
tp4721
F5.203010859854908
s(g3421
g20
tp4722
F1.0
s(g3425
g14
tp4723
F3.146395949935476
s(g3429
g9
tp4724
F-1.0
s(g3433
g14
tp4725
F5.755081149438428
s(g3437
g4
tp4726
F-1.0
s(g3440
g32
tp4727
F0.987190064472868
s(g3444
g14
tp4728
F4.193659311916202
s(g3448
g4
tp4729
F-0.7867615080751558
s(g3452
g8
tp4730
F-0.05792525864140485
s(g3456
g7
tp4731
F4.716727946985004
s(g3460
g24
tp4732
F2.99
s(g3464
g20
tp4733
F-0.9994354777449327
s(g3468
g14
tp4734
F3.0
s(g3472
g14
tp4735
F1.4691381439906057
s(g3476
g2
tp4736
F3.6718888212324754
s(g3480
g20
tp4737
F3.57047526236766
s(g3484
g9
tp4738
F1.01
s(g3488
g2
tp4739
F0.8457817560495423
s(g3492
g6
tp4740
F4.058998398361657
s(g3496
g2
tp4741
F-0.1545046340258804
s(g3500
g20
tp4742
F3.8528276893682465
s(g3504
g20
tp4743
F4.470940763023462
s(g3508
g14
tp4744
F6.358943703594111
s(g3512
g8
tp4745
F3.7900411803674317
s(g3516
g14
tp4746
F-0.4312819191515507
s(g3520
g2
tp4747
F-0.14573690564934755
s(g3524
g20
tp4748
F0.8454893892099129
s(g3528
g14
tp4749
F13.973243996336587
s(g3532
g4
tp4750
F16.097712495766306
s(g3536
g14
tp4751
F2.028167760066987
s(g3540
g2
tp4752
F-0.6626895057708695
s(g3544
g8
tp4753
F2.829397702012774
s(g3547
g8
tp4754
F-0.6378273221415829
s(g3551
g9
tp4755
F5.513440371677101
s(g3555
g1
tp4756
F4.810907532464458
s(g3559
g7
tp4757
F1.0
s(g3563
g7
tp4758
F-1.0
s(g3567
g32
tp4759
F2.99
s(g3571
g7
tp4760
F-0.3479346999384789
s(g3575
g3
tp4761
F17.74896148888751
s(g3579
g3
tp4762
F6.140421345055353
s(g3583
g3
tp4763
F-0.9991070504024071
s(g3587
g15
tp4764
F-0.981584740827085
s(g3590
g8
tp4765
F-1.0
s(g3594
g3
tp4766
F1.3088948621030676
s(g3598
g1
tp4767
F2.3954735984548026
s(g3602
g3
tp4768
F3.916264728905831
s(g3606
g3
tp4769
F-0.22214591460692734
s(g3610
g2
tp4770
F7.434827985156359
s(g3614
g20
tp4771
F1.3333351313786324
s(g3618
g4
tp4772
F-1.0
s(g3622
g2
tp4773
F-0.6066535512971472
s(g3626
g8
tp4774
F0.8454893893854479
s(g3630
g6
tp4775
F1.987190064472868
s(g3634
g4
tp4776
F-0.8525482872988561
s(g3637
g9
tp4777
F-0.992203085739563
s(g3641
g2
tp4778
F3.257877324372653
s(g3645
g14
tp4779
F0.4344564762933879
s(g3649
g2
tp4780
F1.4793641939052717
s(g3653
g15
tp4781
F0.10500296285440047
s(g3657
g7
tp4782
F-1.0
s(g3661
g14
tp4783
F-0.2303523790155353
s(g3665
g9
tp4784
F4.094987058377378
s(g3669
g8
tp4785
F-0.5638367954238319
s(g3673
g20
tp4786
F1.8592445388514804
s(g3677
g7
tp4787
F5.4740244478493505
s(g3681
g15
tp4788
F2.814895715648282
s(g3685
g20
tp4789
F3.324331427746854
s(g3689
g14
tp4790
F-0.6965652309430744
s(g3693
g9
tp4791
F-0.4500705116925907
s(g3697
g20
tp4792
F3.6046343046536515
s(g3701
g9
tp4793
F-0.04028465391069724
s(g3705
g3
tp4794
F3.5510562608742746
s(g3709
g15
tp4795
F4.435308960023897
s(g3713
g8
tp4796
F0.4775309527403111
s(g3717
g14
tp4797
F0.8454893888587393
s(g3720
g32
tp4798
F1.0750922186739245
s(g3724
g24
tp4799
F3.4201011500263374
s(g3728
g14
tp4800
F0.99
s(g3732
g2
tp4801
F5.47801370379758
s(g3736
g6
tp4802
F2.850530392625701
s(g3740
g20
tp4803
F1.0
s(g3744
g14
tp4804
F5.1895452893023775
s(g3747
g3
tp4805
F-0.6068956826717371
s(g3750
g14
tp4806
F-0.49442426127159944
s(g3754
g3
tp4807
F17.179776837410138
s(g3758
g8
tp4808
F0.8454894068228581
s(g3762
g3
tp4809
F3.950881302743532
s(g3766
g24
tp4810
F0.9619131837854975
s(g3770
g4
tp4811
F2.5886594298326573
s(g3774
g14
tp4812
F1.0
s(g3778
g3
tp4813
F0.108166996962062
s(g3782
g2
tp4814
F2.794519080473867
s(g3786
g20
tp4815
F2.99
s(g3790
g4
tp4816
F3.47118071659314
s(g3794
g14
tp4817
F4.951685302464009
s(g3798
g14
tp4818
F1.0
s(g3802
g9
tp4819
F-1.0
s(g3806
g15
tp4820
F-1.0
s(g3810
g8
tp4821
F-0.9882060772959383
s(g3814
g15
tp4822
F0.39505656127545685
s(g3818
g24
tp4823
F-1.0
s(g3822
g9
tp4824
F2.833871257341481
s(g3826
g4
tp4825
F1.180993030579602
s(g3830
g24
tp4826
F1.0
s(g3834
g15
tp4827
F0.7951942240880631
s(g3838
g8
tp4828
F2.7383356120095574
s(g3842
g2
tp4829
F-0.14946960737429937
s(g3846
g15
tp4830
F0.0
s(g3850
g2
tp4831
F0.2881039034064561
s(g3854
g2
tp4832
F0.3478760830202179
s(g3857
g6
tp4833
F8.624537515445098
s(dp4834
(g11
g4
tp4835
F0.8863848717161291
s(g17
g7
tp4836
F0.9135172474836407
s(g22
g9
tp4837
F0.92274469442792
s(g26
g1
tp4838
F0.9135172474836407
s(g30
g14
tp4839
F0.9135172474836407
s(g34
g24
tp4840
F0.8953382542587163
s(g38
g9
tp4841
F0.9043820750088043
s(g42
g20
tp4842
F0.9135172474836407
s(g46
g20
tp4843
F0.9135172474836407
s(g50
g7
tp4844
F0.9801
s(g54
g4
tp4845
F0.9320653479069899
s(g58
g15
tp4846
F0.9135172474836407
s(g62
g9
tp4847
F0.96059601
s(g66
g15
tp4848
F0.9135172474836407
s(g69
g9
tp4849
F0.9135172474836407
s(g73
g15
tp4850
F0.9043820750088043
s(g77
g3
tp4851
F0.9043820750088043
s(g81
g14
tp4852
F0.9135172474836407
s(g85
g2
tp4853
F0.8429431933839266
s(g89
g4
tp4854
F0.9801
s(g93
g20
tp4855
F0.9135172474836407
s(g97
g15
tp4856
F0.9135172474836407
s(g101
g20
tp4857
F0.9135172474836407
s(g105
g6
tp4858
F0.9320653479069899
s(g109
g14
tp4859
F0.9135172474836407
s(g113
g3
tp4860
I1
s(g117
g20
tp4861
F0.8600583546412883
s(g121
g4
tp4862
I1
s(g125
g7
tp4863
F0.9135172474836407
s(g129
g14
tp4864
F0.96059601
s(g133
g2
tp4865
F0.9135172474836407
s(g137
g15
tp4866
F0.9043820750088043
s(g141
g15
tp4867
F0.9135172474836407
s(g145
g15
tp4868
F0.9135172474836407
s(g149
g2
tp4869
F0.9135172474836407
s(g153
g7
tp4870
F0.9135172474836407
s(g157
g2
tp4871
I1
s(g161
g2
tp4872
I1
s(g165
g20
tp4873
F0.9135172474836407
s(g169
g4
tp4874
F0.8261686238355865
s(g172
g24
tp4875
F0.9801
s(g176
g15
tp4876
F0.9135172474836407
s(g180
g24
tp4877
F0.9135172474836407
s(g184
g7
tp4878
F0.9043820750088043
s(g188
g7
tp4879
F0.9135172474836407
s(g192
g9
tp4880
F0.9135172474836407
s(g196
g2
tp4881
F0.8953382542587163
s(g200
g3
tp4882
F0.9135172474836407
s(g204
g24
tp4883
F0.9043820750088043
s(g208
g3
tp4884
F0.6556592205741436
s(g212
g14
tp4885
I1
s(g216
g9
tp4886
F0.9801
s(g220
g2
tp4887
I1
s(g224
g20
tp4888
F0.9135172474836407
s(g228
g15
tp4889
F0.9135172474836407
s(g232
g4
tp4890
F0.99
s(g236
g20
tp4891
F0.9135172474836407
s(g240
g3
tp4892
F0.9135172474836407
s(g244
g9
tp4893
F0.9135172474836407
s(g248
g4
tp4894
F0.92274469442792
s(g252
g15
tp4895
I1
s(g256
g2
tp4896
F0.9135172474836407
s(g260
g4
tp4897
F0.9135172474836407
s(g264
g7
tp4898
I1
s(g268
g4
tp4899
F0.9135172474836407
s(g272
g3
tp4900
F0.9135172474836407
s(g276
g6
tp4901
I1
s(g280
g9
tp4902
F0.9135172474836407
s(g284
g7
tp4903
F0.9135172474836407
s(g288
g20
tp4904
F0.9135172474836407
s(g292
g15
tp4905
F0.8953382542587163
s(g296
g8
tp4906
F0.9135172474836407
s(g300
g4
tp4907
F0.9135172474836407
s(g304
g15
tp4908
I1
s(g308
g20
tp4909
I1
s(g312
g2
tp4910
F0.9320653479069899
s(g316
g20
tp4911
F0.9135172474836407
s(g319
g9
tp4912
F0.8016305895390458
s(g323
g8
tp4913
F0.9043820750088043
s(g327
g24
tp4914
I1
s(g331
g2
tp4915
F0.9135172474836407
s(g335
g2
tp4916
F0.9135172474836407
s(g339
g14
tp4917
F0.9801
s(g343
g4
tp4918
F0.9135172474836407
s(g347
g14
tp4919
F0.9135172474836407
s(g351
g4
tp4920
F0.92274469442792
s(g355
g32
tp4921
I1
s(g359
g3
tp4922
F0.8261686238355865
s(g363
g20
tp4923
F0.9135172474836407
s(g367
g20
tp4924
I1
s(g371
g24
tp4925
F0.8261686238355865
s(g374
g9
tp4926
F0.99
s(g378
g20
tp4927
F0.9135172474836407
s(g382
g3
tp4928
F0.9135172474836407
s(g386
g20
tp4929
I1
s(g390
g4
tp4930
F0.9135172474836407
s(g394
g3
tp4931
I1
s(g398
g15
tp4932
F0.9135172474836407
s(g402
g3
tp4933
F0.9320653479069899
s(g406
g7
tp4934
F0.9135172474836407
s(g410
g24
tp4935
F0.8261686238355865
s(g414
g14
tp4936
F0.9801
s(g418
g8
tp4937
F0.9320653479069899
s(g422
g3
tp4938
F0.92274469442792
s(g426
g8
tp4939
F0.9135172474836407
s(g430
g4
tp4940
F4.363050361306472e-15
s(g434
g20
tp4941
I1
s(g438
g7
tp4942
F0.9135172474836407
s(g442
g24
tp4943
I1
s(g446
g2
tp4944
I1
s(g450
g4
tp4945
F0.9801
s(g454
g2
tp4946
F0.99
s(g458
g7
tp4947
F0.8179069375972307
s(g462
g4
tp4948
I1
s(g466
g7
tp4949
I1
s(g470
g2
tp4950
F0.99
s(g474
g2
tp4951
F0.9135172474836407
s(g478
g20
tp4952
F0.8261686238355865
s(g482
g2
tp4953
F0.99
s(g486
g9
tp4954
F0.9135172474836407
s(g490
g7
tp4955
F0.8179069375972307
s(g494
g20
tp4956
I1
s(g498
g20
tp4957
F0.9043820750088043
s(g502
g14
tp4958
F0.92274469442792
s(g506
g8
tp4959
F0.9043820750088043
s(g510
g7
tp4960
F0.9135172474836407
s(g514
g8
tp4961
F0.9043820750088043
s(g518
g1
tp4962
I1
s(g522
g14
tp4963
F0.8953382542587163
s(g525
g8
tp4964
F0.9702989999999999
s(g529
g24
tp4965
I1
s(g533
g7
tp4966
F0.9135172474836407
s(g537
g8
tp4967
F0.9135172474836407
s(g541
g8
tp4968
F0.9135172474836407
s(g545
g2
tp4969
F0.8953382542587163
s(g549
g20
tp4970
F0.9414801494009999
s(g553
g15
tp4971
F0.9135172474836407
s(g557
g6
tp4972
F0.9043820750088043
s(g561
g4
tp4973
F0.9043820750088043
s(g565
g4
tp4974
F0.9320653479069899
s(g569
g2
tp4975
I1
s(g573
g4
tp4976
I1
s(g577
g2
tp4977
F0.9320653479069899
s(g581
g15
tp4978
F0.9135172474836407
s(g585
g20
tp4979
F0.99
s(g589
g4
tp4980
F0.9414801494009999
s(g593
g9
tp4981
F0.9320653479069899
s(g597
g20
tp4982
F0.9043820750088043
s(g601
g32
tp4983
I1
s(g605
g14
tp4984
F0.9320653479069899
s(g609
g32
tp4985
F0.99
s(g613
g15
tp4986
F0.9043820750088043
s(g617
g3
tp4987
F0.9135172474836407
s(g621
g24
tp4988
F0.9135172474836407
s(g625
g20
tp4989
F0.8863848717161291
s(g629
g3
tp4990
I1
s(g633
g2
tp4991
F0.9135172474836407
s(g637
g2
tp4992
I1
s(g641
g8
tp4993
F0.92274469442792
s(g645
g15
tp4994
I1
s(g649
g8
tp4995
F0.9135172474836407
s(g653
g2
tp4996
F0.9135172474836407
s(g657
g3
tp4997
I1
s(g661
g14
tp4998
F0.9135172474836407
s(g665
g2
tp4999
F0.9043820750088043
s(g669
g20
tp5000
F0.9043820750088043
s(g673
g7
tp5001
F0.9801
s(g677
g3
tp5002
F0.9135172474836407
s(g681
g4
tp5003
F0.9135172474836407
s(g685
g15
tp5004
I1
s(g689
g15
tp5005
I1
s(g693
g8
tp5006
F0.92274469442792
s(g697
g9
tp5007
F0.9135172474836407
s(g701
g15
tp5008
F0.9320653479069899
s(g705
g3
tp5009
F0.9135172474836407
s(g709
g9
tp5010
F0.38878391807422696
s(g713
g2
tp5011
F0.9135172474836407
s(g717
g20
tp5012
I1
s(g720
g9
tp5013
F0.9043820750088043
s(g724
g8
tp5014
F0.9135172474836407
s(g728
g8
tp5015
F0.9135172474836407
s(g732
g24
tp5016
F0.8261686238355865
s(g736
g1
tp5017
I1
s(g740
g8
tp5018
F0.9135172474836407
s(g744
g3
tp5019
F0.9414801494009999
s(g748
g8
tp5020
F0.9135172474836407
s(g752
g7
tp5021
F0.9702989999999999
s(g756
g4
tp5022
F0.9043820750088043
s(g760
g20
tp5023
F0.9135172474836407
s(g764
g14
tp5024
F0.9702989999999999
s(g768
g20
tp5025
F0.9043820750088043
s(g772
g6
tp5026
F0.92274469442792
s(g776
g2
tp5027
I1
s(g780
g3
tp5028
F0.9135172474836407
s(g784
g2
tp5029
F0.9135172474836407
s(g788
g4
tp5030
F0.92274469442792
s(g792
g15
tp5031
F0.9135172474836407
s(g796
g6
tp5032
F0.99
s(g800
g14
tp5033
F0.99
s(g804
g20
tp5034
F0.96059601
s(g808
g4
tp5035
F0.9135172474836407
s(g812
g7
tp5036
F0.9043820750088043
s(g816
g8
tp5037
F0.9135172474836407
s(g820
g15
tp5038
I1
s(g824
g3
tp5039
I1
s(g828
g7
tp5040
I1
s(g832
g14
tp5041
F0.9801
s(g836
g7
tp5042
F0.92274469442792
s(g840
g15
tp5043
F0.9135172474836407
s(g844
g2
tp5044
F0.9135172474836407
s(g848
g14
tp5045
I1
s(g852
g2
tp5046
I1
s(g856
g15
tp5047
F0.9043820750088043
s(g860
g2
tp5048
I1
s(g864
g7
tp5049
I1
s(g868
g20
tp5050
F0.99
s(g872
g14
tp5051
F0.9135172474836407
s(g876
g7
tp5052
F0.9135172474836407
s(g880
g3
tp5053
F0.9801
s(g884
g24
tp5054
F0.9801
s(g888
g9
tp5055
I1
s(g892
g8
tp5056
I1
s(g896
g7
tp5057
F0.9135172474836407
s(g900
g32
tp5058
I1
s(g904
g2
tp5059
F0.9135172474836407
s(g908
g3
tp5060
F0.9509900498999999
s(g912
g6
tp5061
F0.9135172474836407
s(g915
g32
tp5062
F0.9135172474836407
s(g919
g4
tp5063
F0.8429431933839266
s(g923
g7
tp5064
F0.9135172474836407
s(g927
g20
tp5065
F0.8514577710948754
s(g931
g24
tp5066
F0.9135172474836407
s(g935
g2
tp5067
F0.9043820750088043
s(g939
g8
tp5068
F0.9135172474836407
s(g943
g8
tp5069
F0.9135172474836407
s(g946
g9
tp5070
F0.8179069375972307
s(g950
g4
tp5071
F0.8261686238355865
s(g954
g15
tp5072
F0.9135172474836407
s(g958
g15
tp5073
F0.9320653479069899
s(g962
g8
tp5074
F0.8953382542587163
s(g966
g3
tp5075
I1
s(g970
g2
tp5076
F0.9135172474836407
s(g974
g15
tp5077
F0.8687458127689781
s(g978
g15
tp5078
F0.99
s(g982
g7
tp5079
F0.9135172474836407
s(g986
g7
tp5080
F0.9135172474836407
s(g990
g3
tp5081
F0.8863848717161291
s(g994
g20
tp5082
F0.9135172474836407
s(g998
g8
tp5083
F0.9135172474836407
s(g1002
g2
tp5084
I1
s(g1006
g20
tp5085
F0.9043820750088043
s(g1010
g20
tp5086
I1
s(g1014
g8
tp5087
I1
s(g1018
g3
tp5088
I1
s(g1022
g14
tp5089
F0.9135172474836407
s(g1026
g8
tp5090
F0.9135172474836407
s(g1030
g9
tp5091
F0.9801
s(g1034
g32
tp5092
F0.9135172474836407
s(g1038
g32
tp5093
I1
s(g1042
g15
tp5094
F0.9135172474836407
s(g1046
g15
tp5095
F0.9135172474836407
s(g1050
g20
tp5096
F0.9135172474836407
s(g1054
g6
tp5097
F0.9414801494009999
s(g1058
g15
tp5098
F0.9135172474836407
s(g1062
g6
tp5099
F0.9801
s(g1066
g14
tp5100
F0.8953382542587163
s(g1070
g2
tp5101
F0.9702989999999999
s(g1074
g1
tp5102
F0.9320653479069899
s(g1078
g15
tp5103
F0.9135172474836407
s(g1082
g3
tp5104
F0.9135172474836407
s(g1086
g7
tp5105
I1
s(g1090
g20
tp5106
F0.9135172474836407
s(g1094
g9
tp5107
F0.9135172474836407
s(g1098
g14
tp5108
F0.9135172474836407
s(g1102
g2
tp5109
F0.9801
s(g1106
g7
tp5110
F0.96059601
s(g1109
g32
tp5111
F0.9135172474836407
s(g1113
g8
tp5112
F0.9801
s(g1117
g4
tp5113
F0.9801
s(g1121
g20
tp5114
F0.9320653479069899
s(g1125
g15
tp5115
F0.9135172474836407
s(g1129
g2
tp5116
F0.99
s(g1133
g20
tp5117
F0.9135172474836407
s(g1136
g20
tp5118
F0.9135172474836407
s(g1140
g7
tp5119
F0.9135172474836407
s(g1144
g15
tp5120
F0.8953382542587163
s(g1148
g24
tp5121
I1
s(g1152
g7
tp5122
I1
s(g1155
g32
tp5123
F0.9135172474836407
s(g1159
g2
tp5124
F0.8687458127689781
s(g1163
g14
tp5125
I1
s(g1167
g15
tp5126
F0.9135172474836407
s(g1171
g20
tp5127
F0.9320653479069899
s(g1174
g8
tp5128
F0.9043820750088043
s(g1178
g15
tp5129
I1
s(g1182
g2
tp5130
F0.9135172474836407
s(g1186
g24
tp5131
F0.8261686238355865
s(g1190
g15
tp5132
I1
s(g1194
g3
tp5133
F0.9135172474836407
s(g1198
g2
tp5134
F0.9801
s(g1202
g9
tp5135
F0.9135172474836407
s(g1206
g2
tp5136
F0.99
s(g1210
g8
tp5137
F0.8863848717161291
s(g1214
g2
tp5138
F0.9135172474836407
s(g1218
g6
tp5139
F0.9043820750088043
s(g1222
g4
tp5140
I1
s(g1226
g2
tp5141
F0.99
s(g1230
g20
tp5142
F0.9320653479069899
s(g1234
g14
tp5143
I1
s(g1238
g6
tp5144
I1
s(g1242
g15
tp5145
F0.9135172474836407
s(g1246
g14
tp5146
F0.92274469442792
s(g1250
g14
tp5147
F0.9043820750088043
s(g1254
g7
tp5148
I1
s(g1258
g4
tp5149
F0.8953382542587163
s(g1262
g8
tp5150
F0.9135172474836407
s(g1266
g4
tp5151
F0.9135172474836407
s(g1270
g14
tp5152
I1
s(g1274
g4
tp5153
I1
s(g1278
g14
tp5154
F0.9135172474836407
s(g1282
g2
tp5155
F0.9801
s(g1286
g4
tp5156
F0.8687458127689781
s(g1290
g4
tp5157
F0.9135172474836407
s(g1294
g14
tp5158
F0.9801
s(g1298
g15
tp5159
F0.9135172474836407
s(g1302
g4
tp5160
F0.9135172474836407
s(g1306
g4
tp5161
F0.92274469442792
s(g1310
g3
tp5162
I1
s(g1314
g14
tp5163
F0.9135172474836407
s(g1318
g20
tp5164
I1
s(g1322
g24
tp5165
F0.9801
s(g1326
g7
tp5166
F0.9135172474836407
s(g1330
g24
tp5167
F0.9135172474836407
s(g1334
g20
tp5168
I1
s(g1338
g9
tp5169
F0.9135172474836407
s(g1342
g4
tp5170
F0.99
s(g1346
g2
tp5171
F0.9135172474836407
s(g1350
g14
tp5172
I1
s(g1354
g4
tp5173
F0.9135172474836407
s(g1358
g9
tp5174
F0.9135172474836407
s(g1362
g2
tp5175
F0.8261686238355865
s(g1366
g6
tp5176
I1
s(g1370
g24
tp5177
F0.9135172474836407
s(g1374
g7
tp5178
F0.99
s(g1378
g4
tp5179
F0.99
s(g1382
g2
tp5180
F0.9135172474836407
s(g1386
g2
tp5181
F0.9135172474836407
s(g1390
g6
tp5182
F0.9320653479069899
s(g1394
g20
tp5183
F0.9043820750088043
s(g1398
g3
tp5184
F0.9135172474836407
s(g1402
g24
tp5185
F0.9135172474836407
s(g1406
g1
tp5186
F0.9135172474836407
s(g1410
g6
tp5187
F0.9135172474836407
s(g1414
g24
tp5188
F0.9702989999999999
s(g1418
g4
tp5189
F0.9135172474836407
s(g1422
g14
tp5190
F0.8261686238355865
s(g1426
g20
tp5191
I1
s(g1430
g6
tp5192
F0.9135172474836407
s(g1434
g3
tp5193
F0.9414801494009999
s(g1438
g7
tp5194
F0.99
s(g1442
g2
tp5195
F0.9135172474836407
s(g1445
g9
tp5196
F0.9043820750088043
s(g1449
g8
tp5197
F0.8429431933839266
s(g1453
g15
tp5198
I1
s(g1457
g24
tp5199
F0.9135172474836407
s(g1461
g2
tp5200
I1
s(g1465
g8
tp5201
F0.9043820750088043
s(g1469
g2
tp5202
I1
s(g1473
g15
tp5203
F0.9135172474836407
s(g1477
g2
tp5204
F0.92274469442792
s(g1480
g6
tp5205
F9.414846653108605e-20
s(g1484
g3
tp5206
F0.8953382542587163
s(g1488
g4
tp5207
F0.9135172474836407
s(g1492
g32
tp5208
I1
s(g1496
g14
tp5209
F0.9801
s(g1500
g14
tp5210
I1
s(g1503
g24
tp5211
F0.8953382542587163
s(g1507
g7
tp5212
F0.9702989999999999
s(g1511
g7
tp5213
F0.9043820750088043
s(g1515
g20
tp5214
F0.9135172474836407
s(g1519
g14
tp5215
F0.8261686238355865
s(g1523
g15
tp5216
I1
s(g1527
g8
tp5217
F0.9043820750088043
s(g1531
g15
tp5218
I1
s(g1535
g9
tp5219
F0.9135172474836407
s(g1538
g9
tp5220
F0.8775210229989678
s(g1542
g7
tp5221
F0.9135172474836407
s(g1546
g14
tp5222
F0.99
s(g1550
g8
tp5223
F0.9135172474836407
s(g1554
g4
tp5224
F0.9043820750088043
s(g1558
g8
tp5225
F0.9135172474836407
s(g1562
g20
tp5226
F0.99
s(g1566
g3
tp5227
F0.99
s(g1570
g7
tp5228
I1
s(g1574
g7
tp5229
F0.9135172474836407
s(g1578
g2
tp5230
F0.9135172474836407
s(g1582
g3
tp5231
F0.9043820750088043
s(g1586
g2
tp5232
F0.92274469442792
s(g1590
g2
tp5233
F0.9135172474836407
s(g1594
g14
tp5234
I1
s(g1598
g2
tp5235
F0.9043820750088043
s(g1602
g4
tp5236
F0.9320653479069899
s(g1606
g8
tp5237
F0.8429431933839266
s(g1610
g6
tp5238
I1
s(g1614
g20
tp5239
F0.99
s(g1618
g2
tp5240
F0.99
s(g1622
g8
tp5241
F0.9135172474836407
s(g1626
g9
tp5242
F0.9043820750088043
s(g1630
g3
tp5243
I1
s(g1634
g3
tp5244
F0.9135172474836407
s(g1638
g2
tp5245
F0.9135172474836407
s(g1642
g15
tp5246
I1
s(g1646
g9
tp5247
F0.9135172474836407
s(g1650
g3
tp5248
I1
s(g1654
g14
tp5249
F0.9135172474836407
s(g1658
g15
tp5250
F0.9135172474836407
s(g1662
g2
tp5251
I1
s(g1666
g20
tp5252
I1
s(g1670
g3
tp5253
F0.8261686238355865
s(g1674
g3
tp5254
F0.9135172474836407
s(g1678
g8
tp5255
F0.9135172474836407
s(g1682
g8
tp5256
F0.9135172474836407
s(g1686
g3
tp5257
I1
s(g1690
g2
tp5258
F0.8345137614500874
s(g1694
g3
tp5259
F0.8261686238355865
s(g1697
g14
tp5260
F0.9135172474836407
s(g1701
g9
tp5261
F0.9135172474836407
s(g1705
g15
tp5262
F0.96059601
s(g1709
g3
tp5263
I1
s(g1713
g3
tp5264
F0.8953382542587163
s(g1717
g20
tp5265
F0.9135172474836407
s(g1721
g20
tp5266
F0.8863848717161291
s(g1725
g8
tp5267
F0.9135172474836407
s(g1729
g3
tp5268
F0.92274469442792
s(g1733
g20
tp5269
F0.9135172474836407
s(g1737
g2
tp5270
I1
s(g1741
g3
tp5271
F0.9135172474836407
s(g1745
g7
tp5272
F0.9702989999999999
s(g1749
g20
tp5273
F0.9801
s(g1753
g2
tp5274
F0.9135172474836407
s(g1757
g20
tp5275
F0.9135172474836407
s(g1761
g15
tp5276
F0.9135172474836407
s(g1765
g7
tp5277
F0.9135172474836407
s(g1769
g4
tp5278
I1
s(g1773
g1
tp5279
I1
s(g1777
g24
tp5280
F0.9135172474836407
s(g1781
g20
tp5281
F0.8514577710948754
s(g1785
g20
tp5282
I1
s(g1789
g7
tp5283
I1
s(g1793
g15
tp5284
F0.7034476949995692
s(g1797
g3
tp5285
F0.9320653479069899
s(g1801
g24
tp5286
F0.96059601
s(g1805
g7
tp5287
F0.99
s(g1809
g14
tp5288
F0.9135172474836407
s(g1812
g7
tp5289
F0.9135172474836407
s(g1816
g8
tp5290
F0.9043820750088043
s(g1820
g2
tp5291
F0.9135172474836407
s(g1824
g14
tp5292
F0.9135172474836407
s(g1828
g14
tp5293
F0.6556592205741436
s(g1832
g3
tp5294
F0.9801
s(g1836
g15
tp5295
F0.8863848717161291
s(g1840
g20
tp5296
I1
s(g1844
g3
tp5297
I1
s(g1848
g9
tp5298
F0.9135172474836407
s(g1852
g4
tp5299
I1
s(g1856
g9
tp5300
I1
s(g1860
g3
tp5301
F0.9043820750088043
s(g1864
g3
tp5302
F0.8261686238355865
s(g1868
g20
tp5303
F0.99
s(g1872
g4
tp5304
F0.96059601
s(g1876
g4
tp5305
I1
s(g1880
g20
tp5306
F0.9043820750088043
s(g1884
g14
tp5307
F0.92274469442792
s(g1887
g9
tp5308
F0.9043820750088043
s(g1891
g6
tp5309
I1
s(g1895
g4
tp5310
F0.9135172474836407
s(g1899
g20
tp5311
F0.9801
s(g1903
g3
tp5312
F0.9135172474836407
s(g1907
g7
tp5313
F0.9135172474836407
s(g1911
g20
tp5314
F0.9135172474836407
s(g1915
g24
tp5315
F0.92274469442792
s(g1919
g15
tp5316
F0.9135172474836407
s(g1923
g32
tp5317
I1
s(g1927
g20
tp5318
F0.9135172474836407
s(g1931
g9
tp5319
F0.9135172474836407
s(g1935
g15
tp5320
I1
s(g1939
g2
tp5321
I1
s(g1943
g3
tp5322
F0.99
s(g1947
g7
tp5323
F0.99
s(g1951
g14
tp5324
I1
s(g1955
g7
tp5325
F0.99
s(g1959
g14
tp5326
I1
s(g1963
g6
tp5327
I1
s(g1967
g3
tp5328
F0.9135172474836407
s(g1971
g15
tp5329
F0.9135172474836407
s(g1974
g9
tp5330
F0.92274469442792
s(g1978
g4
tp5331
F0.9135172474836407
s(g1982
g15
tp5332
I1
s(g1986
g14
tp5333
F0.9801
s(g1990
g15
tp5334
F0.9043820750088043
s(g1994
g24
tp5335
F0.8097278682212583
s(g1998
g14
tp5336
I1
s(g2002
g2
tp5337
F0.9135172474836407
s(g2006
g7
tp5338
F0.9135172474836407
s(g2010
g9
tp5339
F0.92274469442792
s(g2014
g4
tp5340
F0.8953382542587163
s(g2018
g20
tp5341
F0.8429431933839266
s(g2022
g4
tp5342
F0.9135172474836407
s(g2026
g6
tp5343
F0.9135172474836407
s(g2030
g24
tp5344
F0.8261686238355865
s(g2034
g4
tp5345
F0.99
s(g2038
g15
tp5346
F0.9135172474836407
s(g2041
g32
tp5347
F0.9135172474836407
s(g2045
g14
tp5348
F0.9135172474836407
s(g2049
g2
tp5349
F0.9135172474836407
s(g2053
g8
tp5350
F0.9135172474836407
s(g2057
g8
tp5351
F0.9135172474836407
s(g2061
g15
tp5352
F0.99
s(g2065
g9
tp5353
F0.9043820750088043
s(g2069
g8
tp5354
F0.9135172474836407
s(g2073
g2
tp5355
F0.99
s(g2077
g14
tp5356
F0.9135172474836407
s(g2081
g20
tp5357
F0.99
s(g2085
g15
tp5358
F0.8953382542587163
s(g2089
g2
tp5359
F0.9135172474836407
s(g2093
g8
tp5360
F0.8863848717161291
s(g2097
g8
tp5361
F0.9135172474836407
s(g2101
g6
tp5362
F0.9135172474836407
s(g2105
g7
tp5363
F0.9135172474836407
s(g2109
g2
tp5364
I1
s(g2113
g14
tp5365
I1
s(g2116
g9
tp5366
F0.99
s(g2120
g2
tp5367
F0.9135172474836407
s(g2124
g2
tp5368
F0.8345137614500874
s(g2128
g2
tp5369
F0.9801
s(g2132
g3
tp5370
F0.9135172474836407
s(g2136
g20
tp5371
F0.9135172474836407
s(g2140
g7
tp5372
F0.9043820750088043
s(g2144
g4
tp5373
F0.9801
s(g2148
g2
tp5374
F0.9135172474836407
s(g2152
g20
tp5375
F0.9135172474836407
s(g2156
g20
tp5376
F0.9135172474836407
s(g2160
g3
tp5377
F0.92274469442792
s(g2164
g1
tp5378
F0.9702989999999999
s(g2168
g14
tp5379
F0.9135172474836407
s(g2172
g15
tp5380
F0.9135172474836407
s(g2176
g4
tp5381
F0.9801
s(g2180
g6
tp5382
I1
s(g2184
g14
tp5383
F0.9135172474836407
s(g2188
g3
tp5384
F0.9801
s(g2192
g2
tp5385
F0.9135172474836407
s(g2196
g2
tp5386
F0.9414801494009999
s(g2200
g15
tp5387
F0.9135172474836407
s(g2204
g15
tp5388
F0.9135172474836407
s(g2208
g4
tp5389
F0.9135172474836407
s(g2212
g14
tp5390
I1
s(g2216
g14
tp5391
F0.9135172474836407
s(g2220
g15
tp5392
F0.9135172474836407
s(g2224
g1
tp5393
F0.9702989999999999
s(g2228
g3
tp5394
F0.9043820750088043
s(g2232
g20
tp5395
F0.9135172474836407
s(g2236
g20
tp5396
F0.8179069375972307
s(g2240
g15
tp5397
F0.99
s(g2244
g2
tp5398
F0.9702989999999999
s(g2248
g2
tp5399
F0.92274469442792
s(g2252
g20
tp5400
F0.8863848717161291
s(g2256
g6
tp5401
F0.9320653479069899
s(g2260
g24
tp5402
F0.9135172474836407
s(g2264
g1
tp5403
F0.8953382542587163
s(g2267
g3
tp5404
F0.9043820750088043
s(g2271
g4
tp5405
I1
s(g2275
g20
tp5406
F0.99
s(g2279
g7
tp5407
F0.99
s(g2283
g6
tp5408
F0.8261686238355865
s(g2287
g14
tp5409
F0.99
s(g2291
g4
tp5410
F0.92274469442792
s(g2295
g24
tp5411
I1
s(g2299
g14
tp5412
F0.99
s(g2303
g7
tp5413
F0.9135172474836407
s(g2307
g14
tp5414
F0.99
s(g2311
g14
tp5415
F0.8863848717161291
s(g2315
g2
tp5416
F0.96059601
s(g2319
g8
tp5417
F0.8953382542587163
s(g2323
g4
tp5418
F0.9135172474836407
s(g2327
g14
tp5419
F0.99
s(g2331
g2
tp5420
F0.9135172474836407
s(g2335
g2
tp5421
F0.9135172474836407
s(g2339
g2
tp5422
F0.9135172474836407
s(g2343
g20
tp5423
F0.9135172474836407
s(g2347
g3
tp5424
F0.9135172474836407
s(g2351
g8
tp5425
F1.0791511428543094e-15
s(g2355
g2
tp5426
F0.8179069375972307
s(g2359
g7
tp5427
F0.9135172474836407
s(g2363
g20
tp5428
I1
s(g2366
g2
tp5429
F0.9135172474836407
s(g2370
g4
tp5430
F0.99
s(g2374
g4
tp5431
F0.8775210229989678
s(g2378
g3
tp5432
F0.9135172474836407
s(g2382
g2
tp5433
F0.9043820750088043
s(g2386
g15
tp5434
F0.9043820750088043
s(g2390
g15
tp5435
F0.9043820750088043
s(g2394
g20
tp5436
I1
s(g2398
g8
tp5437
F0.9043820750088043
s(g2402
g8
tp5438
F0.9135172474836407
s(g2406
g20
tp5439
I1
s(g2409
g32
tp5440
F0.9135172474836407
s(g2413
g7
tp5441
F0.9135172474836407
s(g2417
g6
tp5442
I1
s(g2421
g2
tp5443
F0.9135172474836407
s(g2425
g6
tp5444
I1
s(g2429
g15
tp5445
I1
s(g2433
g14
tp5446
F0.8179069375972307
s(g2437
g8
tp5447
F0.8953382542587163
s(g2441
g15
tp5448
F0.8261686238355865
s(g2445
g4
tp5449
F0.9135172474836407
s(g2449
g6
tp5450
F0.9135172474836407
s(g2453
g3
tp5451
F0.9135172474836407
s(g2457
g32
tp5452
F0.9801
s(g2461
g2
tp5453
I1
s(g2465
g8
tp5454
F0.99
s(g2469
g14
tp5455
F0.9702989999999999
s(g2473
g2
tp5456
F0.9801
s(g2477
g20
tp5457
F0.9135172474836407
s(g2481
g20
tp5458
F0.9414801494009999
s(g2485
g7
tp5459
I1
s(g2489
g4
tp5460
F0.9135172474836407
s(g2493
g15
tp5461
F0.8775210229989678
s(g2497
g2
tp5462
I1
s(g2501
g15
tp5463
I1
s(g2505
g3
tp5464
F0.99
s(g2509
g14
tp5465
F0.9043820750088043
s(g2513
g4
tp5466
F0.9135172474836407
s(g2517
g9
tp5467
F0.9135172474836407
s(g2521
g14
tp5468
F0.9135172474836407
s(g2525
g8
tp5469
F0.99
s(g2529
g14
tp5470
F0.9135172474836407
s(g2532
g4
tp5471
F0.9135172474836407
s(g2535
g15
tp5472
F0.9135172474836407
s(g2539
g24
tp5473
F0.9320653479069899
s(g2543
g3
tp5474
F0.9135172474836407
s(g2547
g9
tp5475
F0.9135172474836407
s(g2551
g8
tp5476
F0.9135172474836407
s(g2555
g8
tp5477
F0.9135172474836407
s(g2559
g3
tp5478
F0.9043820750088043
s(g2563
g15
tp5479
I1
s(g2567
g4
tp5480
F0.9135172474836407
s(g2571
g14
tp5481
F0.8863848717161291
s(g2575
g6
tp5482
F0.9135172474836407
s(g2579
g8
tp5483
F0.9043820750088043
s(g2583
g14
tp5484
F5.281065191087128e-15
s(g2587
g2
tp5485
F0.9801
s(g2591
g8
tp5486
F0.9135172474836407
s(g2595
g4
tp5487
F0.9135172474836407
s(g2599
g2
tp5488
F0.92274469442792
s(g2603
g24
tp5489
F0.9135172474836407
s(g2607
g4
tp5490
I1
s(g2611
g3
tp5491
F0.99
s(g2615
g15
tp5492
F0.9043820750088043
s(g2619
g9
tp5493
F0.8953382542587163
s(g2623
g3
tp5494
I1
s(g2627
g3
tp5495
F0.8953382542587163
s(g2631
g14
tp5496
F0.9801
s(g2635
g6
tp5497
F0.9135172474836407
s(g2638
g24
tp5498
F0.9320653479069899
s(g2641
g32
tp5499
F0.9135172474836407
s(g2645
g4
tp5500
I1
s(g2649
g15
tp5501
F0.9135172474836407
s(g2653
g7
tp5502
F0.9135172474836407
s(g2657
g4
tp5503
I1
s(g2661
g20
tp5504
F0.9043820750088043
s(g2665
g15
tp5505
F0.8953382542587163
s(g2669
g15
tp5506
F0.9135172474836407
s(g2673
g3
tp5507
F0.9135172474836407
s(g2677
g14
tp5508
F0.9135172474836407
s(g2680
g15
tp5509
F0.9135172474836407
s(g2684
g3
tp5510
F0.9135172474836407
s(g2688
g1
tp5511
I1
s(g2692
g8
tp5512
I1
s(g2696
g4
tp5513
F0.9702989999999999
s(g2699
g32
tp5514
F0.9135172474836407
s(g2703
g4
tp5515
F0.99
s(g2707
g4
tp5516
F0.8097278682212583
s(g2711
g20
tp5517
F0.9135172474836407
s(g2715
g2
tp5518
I1
s(g2719
g2
tp5519
F0.9135172474836407
s(g2723
g4
tp5520
F0.8687458127689781
s(g2727
g15
tp5521
I1
s(g2731
g6
tp5522
F0.9135172474836407
s(g2734
g8
tp5523
F0.9135172474836407
s(g2738
g8
tp5524
F0.9135172474836407
s(g2742
g8
tp5525
F0.99
s(g2745
g20
tp5526
F0.9043820750088043
s(g2749
g24
tp5527
F0.8953382542587163
s(g2753
g15
tp5528
I1
s(g2757
g6
tp5529
F0.9135172474836407
s(g2761
g20
tp5530
F0.99
s(g2765
g32
tp5531
I1
s(g2769
g14
tp5532
F0.9135172474836407
s(g2772
g20
tp5533
F0.92274469442792
s(g2776
g20
tp5534
F0.9135172474836407
s(g2780
g2
tp5535
F0.9135172474836407
s(g2784
g4
tp5536
F0.9135172474836407
s(g2788
g15
tp5537
F0.9135172474836407
s(g2792
g14
tp5538
F0.9135172474836407
s(g2796
g7
tp5539
I1
s(g2800
g4
tp5540
F0.7323033696543974
s(g2804
g4
tp5541
F0.9320653479069899
s(g2808
g24
tp5542
F0.8863848717161291
s(g2812
g3
tp5543
F0.92274469442792
s(g2816
g20
tp5544
F0.9135172474836407
s(g2820
g20
tp5545
F0.9043820750088043
s(g2824
g8
tp5546
F0.8863848717161291
s(g2828
g14
tp5547
F0.9135172474836407
s(g2832
g14
tp5548
F0.9135172474836407
s(g2836
g4
tp5549
I1
s(g2839
g32
tp5550
F0.9135172474836407
s(g2843
g3
tp5551
F0.99
s(g2847
g14
tp5552
F0.9135172474836407
s(g2851
g7
tp5553
F0.96059601
s(g2855
g20
tp5554
F0.9135172474836407
s(g2859
g14
tp5555
F0.9135172474836407
s(g2863
g3
tp5556
F0.9135172474836407
s(g2867
g9
tp5557
F0.9135172474836407
s(g2871
g2
tp5558
F0.9702989999999999
s(g2875
g3
tp5559
F0.9135172474836407
s(g2879
g8
tp5560
F0.9043820750088043
s(g2883
g7
tp5561
F0.9414801494009999
s(g2887
g2
tp5562
F0.9135172474836407
s(g2891
g8
tp5563
I1
s(g2895
g15
tp5564
F0.9135172474836407
s(g2899
g14
tp5565
F0.9135172474836407
s(g2903
g4
tp5566
I1
s(g2907
g7
tp5567
I1
s(g2910
g32
tp5568
F0.8863848717161291
s(g2914
g15
tp5569
F0.9135172474836407
s(g2918
g3
tp5570
I1
s(g2922
g7
tp5571
F0.99
s(g2926
g4
tp5572
F0.9135172474836407
s(g2930
g24
tp5573
F0.9135172474836407
s(g2933
g4
tp5574
F0.7323033696543974
s(g2937
g4
tp5575
F0.8261686238355865
s(g2941
g3
tp5576
I1
s(g2945
g24
tp5577
F0.9801
s(g2949
g24
tp5578
F0.8261686238355865
s(g2953
g8
tp5579
F0.9801
s(g2957
g4
tp5580
F0.8687458127689781
s(g2961
g7
tp5581
F0.8863848717161291
s(g2965
g15
tp5582
F0.9135172474836407
s(g2969
g4
tp5583
F0.9135172474836407
s(g2973
g9
tp5584
F0.9135172474836407
s(g2977
g32
tp5585
F0.9135172474836407
s(g2981
g20
tp5586
I1
s(g2985
g15
tp5587
F0.9135172474836407
s(g2989
g24
tp5588
I1
s(g2993
g8
tp5589
I1
s(g2997
g8
tp5590
F0.9043820750088043
s(g3001
g15
tp5591
F0.9135172474836407
s(g3005
g2
tp5592
I1
s(g3009
g20
tp5593
F0.9135172474836407
s(g3013
g7
tp5594
F0.8953382542587163
s(g3017
g9
tp5595
F0.9135172474836407
s(g3021
g9
tp5596
F0.9135172474836407
s(g3025
g15
tp5597
F0.99
s(g3029
g2
tp5598
F0.8953382542587163
s(g3033
g9
tp5599
F0.9135172474836407
s(g3037
g9
tp5600
F0.9135172474836407
s(g3041
g20
tp5601
F0.9801
s(g3045
g24
tp5602
F0.8953382542587163
s(g3049
g2
tp5603
F0.9135172474836407
s(g3053
g14
tp5604
I1
s(g3057
g3
tp5605
F0.99
s(g3061
g2
tp5606
F0.99
s(g3065
g8
tp5607
F0.9135172474836407
s(g3069
g7
tp5608
I1
s(g3073
g20
tp5609
F0.92274469442792
s(g3077
g3
tp5610
F0.9135172474836407
s(g3081
g14
tp5611
F0.9414801494009999
s(g3085
g20
tp5612
F0.9135172474836407
s(g3089
g15
tp5613
F0.99
s(g3093
g9
tp5614
F0.8775210229989678
s(g3097
g4
tp5615
I1
s(g3101
g8
tp5616
F0.9135172474836407
s(g3105
g3
tp5617
F0.8261686238355865
s(g3109
g15
tp5618
F0.9135172474836407
s(g3113
g8
tp5619
F0.9043820750088043
s(g3117
g6
tp5620
I1
s(g3121
g14
tp5621
I1
s(g3125
g2
tp5622
F0.9043820750088043
s(g3129
g7
tp5623
F0.9043820750088043
s(g3133
g24
tp5624
F0.9320653479069899
s(g3137
g14
tp5625
F0.9135172474836407
s(g3141
g3
tp5626
F0.9135172474836407
s(g3145
g7
tp5627
I1
s(g3149
g14
tp5628
F0.9135172474836407
s(g3153
g14
tp5629
F0.9135172474836407
s(g3156
g9
tp5630
F0.99
s(g3160
g2
tp5631
F0.96059601
s(g3164
g8
tp5632
F0.9135172474836407
s(g3168
g20
tp5633
F0.96059601
s(g3172
g8
tp5634
F0.9135172474836407
s(g3176
g2
tp5635
F0.99
s(g3180
g14
tp5636
F0.9135172474836407
s(g3184
g20
tp5637
F0.9043820750088043
s(g3188
g14
tp5638
I1
s(g3192
g8
tp5639
I1
s(g3196
g7
tp5640
F0.9043820750088043
s(g3200
g14
tp5641
F0.9135172474836407
s(g3204
g20
tp5642
F0.9043820750088043
s(g3208
g2
tp5643
F0.9414801494009999
s(g3211
g32
tp5644
F0.9135172474836407
s(g3215
g7
tp5645
F0.9135172474836407
s(g3219
g15
tp5646
I1
s(g3223
g3
tp5647
F0.8863848717161291
s(g3227
g2
tp5648
F0.9043820750088043
s(g3231
g20
tp5649
F0.92274469442792
s(g3235
g1
tp5650
I1
s(g3239
g3
tp5651
F0.9135172474836407
s(g3243
g20
tp5652
I1
s(g3247
g14
tp5653
I1
s(g3251
g15
tp5654
F0.9135172474836407
s(g3255
g4
tp5655
F0.8863848717161291
s(g3259
g15
tp5656
F0.9135172474836407
s(g3263
g14
tp5657
F0.8179069375972307
s(g3267
g24
tp5658
I1
s(g3271
g6
tp5659
F0.9135172474836407
s(g3275
g2
tp5660
F0.8953382542587163
s(g3279
g4
tp5661
I1
s(g3283
g15
tp5662
I1
s(g3287
g15
tp5663
F0.9135172474836407
s(g3291
g2
tp5664
F0.9801
s(g3295
g7
tp5665
F0.9135172474836407
s(g3299
g7
tp5666
F0.9043820750088043
s(g3303
g15
tp5667
F0.9801
s(g3307
g15
tp5668
F0.99
s(g3311
g2
tp5669
F0.8261686238355865
s(g3314
g8
tp5670
F0.9320653479069899
s(g3318
g2
tp5671
F0.9043820750088043
s(g3322
g14
tp5672
F0.9135172474836407
s(g3326
g8
tp5673
F0.8429431933839266
s(g3330
g3
tp5674
I1
s(g3334
g15
tp5675
F0.9135172474836407
s(g3338
g7
tp5676
I1
s(g3342
g8
tp5677
F0.8863848717161291
s(g3346
g2
tp5678
I1
s(g3350
g14
tp5679
F0.9135172474836407
s(g3354
g20
tp5680
I1
s(g3358
g3
tp5681
F0.99
s(g3362
g14
tp5682
I1
s(g3366
g24
tp5683
F0.9135172474836407
s(g3370
g7
tp5684
F0.99
s(g3374
g2
tp5685
I1
s(g3378
g8
tp5686
F0.99
s(g3382
g8
tp5687
F0.96059601
s(g3386
g6
tp5688
F0.92274469442792
s(g3390
g20
tp5689
F0.9135172474836407
s(g3393
g8
tp5690
F0.9043820750088043
s(g3397
g20
tp5691
F0.9135172474836407
s(g3401
g15
tp5692
F0.8687458127689781
s(g3405
g24
tp5693
F0.8261686238355865
s(g3409
g3
tp5694
F0.99
s(g3413
g2
tp5695
F0.4298890135238936
s(g3417
g3
tp5696
F0.9135172474836407
s(g3421
g20
tp5697
I1
s(g3425
g14
tp5698
F0.8261686238355865
s(g3429
g9
tp5699
I1
s(g3433
g14
tp5700
F0.9135172474836407
s(g3437
g4
tp5701
I1
s(g3440
g32
tp5702
F0.8179069375972307
s(g3444
g14
tp5703
F0.9135172474836407
s(g3448
g4
tp5704
F0.8345137614500874
s(g3452
g8
tp5705
F0.9135172474836407
s(g3456
g7
tp5706
F0.9135172474836407
s(g3460
g24
tp5707
F0.9801
s(g3464
g20
tp5708
F0.9135172474836407
s(g3468
g14
tp5709
I1
s(g3472
g14
tp5710
I1
s(g3476
g2
tp5711
F0.9043820750088043
s(g3480
g20
tp5712
F0.9135172474836407
s(g3484
g9
tp5713
F0.9801
s(g3488
g2
tp5714
F0.9135172474836407
s(g3492
g6
tp5715
I1
s(g3496
g2
tp5716
F0.9135172474836407
s(g3500
g20
tp5717
F0.9801
s(g3504
g20
tp5718
F0.9135172474836407
s(g3508
g14
tp5719
F0.96059601
s(g3512
g8
tp5720
F0.9135172474836407
s(g3516
g14
tp5721
F0.8953382542587163
s(g3520
g2
tp5722
F0.92274469442792
s(g3524
g20
tp5723
F0.9135172474836407
s(g3528
g14
tp5724
F0.8261686238355865
s(g3532
g4
tp5725
F0.9320653479069899
s(g3536
g14
tp5726
F0.9801
s(g3540
g2
tp5727
F0.8953382542587163
s(g3544
g8
tp5728
F0.8863848717161291
s(g3547
g8
tp5729
F0.8953382542587163
s(g3551
g9
tp5730
F0.9135172474836407
s(g3555
g1
tp5731
I1
s(g3559
g7
tp5732
I1
s(g3563
g7
tp5733
F0.9135172474836407
s(g3567
g32
tp5734
F0.9801
s(g3571
g7
tp5735
F0.9320653479069899
s(g3575
g3
tp5736
F0.9801
s(g3579
g3
tp5737
F0.9135172474836407
s(g3583
g3
tp5738
F0.9135172474836407
s(g3587
g15
tp5739
F0.9135172474836407
s(g3590
g8
tp5740
F0.9135172474836407
s(g3594
g3
tp5741
F0.96059601
s(g3598
g1
tp5742
F9.015199475057933e-17
s(g3602
g3
tp5743
F0.9702989999999999
s(g3606
g3
tp5744
F0.9135172474836407
s(g3610
g2
tp5745
F0.9702989999999999
s(g3614
g20
tp5746
F0.9135172474836407
s(g3618
g4
tp5747
I1
s(g3622
g2
tp5748
I1
s(g3626
g8
tp5749
F0.9135172474836407
s(g3630
g6
tp5750
I1
s(g3634
g4
tp5751
F0.9043820750088043
s(g3637
g9
tp5752
F0.9135172474836407
s(g3641
g2
tp5753
F0.9043820750088043
s(g3645
g14
tp5754
F0.92274469442792
s(g3649
g2
tp5755
F0.9135172474836407
s(g3653
g15
tp5756
F0.9043820750088043
s(g3657
g7
tp5757
I1
s(g3661
g14
tp5758
F0.9043820750088043
s(g3665
g9
tp5759
F0.9702989999999999
s(g3669
g8
tp5760
F0.9043820750088043
s(g3673
g20
tp5761
F0.8016305895390458
s(g3677
g7
tp5762
F0.9135172474836407
s(g3681
g15
tp5763
F0.9135172474836407
s(g3685
g20
tp5764
F0.9135172474836407
s(g3689
g14
tp5765
F0.92274469442792
s(g3693
g9
tp5766
F0.8863848717161291
s(g3697
g20
tp5767
F0.9702989999999999
s(g3701
g9
tp5768
F0.9135172474836407
s(g3705
g3
tp5769
F0.99
s(g3709
g15
tp5770
F0.9135172474836407
s(g3713
g8
tp5771
F0.9702989999999999
s(g3717
g14
tp5772
F0.9135172474836407
s(g3720
g32
tp5773
F0.36603234127322926
s(g3724
g24
tp5774
F0.9135172474836407
s(g3728
g14
tp5775
F0.9801
s(g3732
g2
tp5776
I1
s(g3736
g6
tp5777
F0.99
s(g3740
g20
tp5778
I1
s(g3744
g14
tp5779
F0.92274469442792
s(g3747
g3
tp5780
F0.8097278682212583
s(g3750
g14
tp5781
F0.8863848717161291
s(g3754
g3
tp5782
F0.9043820750088043
s(g3758
g8
tp5783
F0.9135172474836407
s(g3762
g3
tp5784
F0.9414801494009999
s(g3766
g24
tp5785
F0.9135172474836407
s(g3770
g4
tp5786
F0.9135172474836407
s(g3774
g14
tp5787
I1
s(g3778
g3
tp5788
F0.9135172474836407
s(g3782
g2
tp5789
F0.9135172474836407
s(g3786
g20
tp5790
F0.9801
s(g3790
g4
tp5791
F0.8261686238355865
s(g3794
g14
tp5792
I1
s(g3798
g14
tp5793
F0.99
s(g3802
g9
tp5794
F0.99
s(g3806
g15
tp5795
I1
s(g3810
g8
tp5796
F0.9135172474836407
s(g3814
g15
tp5797
I1
s(g3818
g24
tp5798
I1
s(g3822
g9
tp5799
F3.4388527884451823e-18
s(g3826
g4
tp5800
F0.9043820750088043
s(g3830
g24
tp5801
I1
s(g3834
g15
tp5802
F0.92274469442792
s(g3838
g8
tp5803
F0.9135172474836407
s(g3842
g2
tp5804
I1
s(g3846
g15
tp5805
I1
s(g3850
g2
tp5806
F0.9135172474836407
s(g3854
g2
tp5807
F0.9801
s(g3857
g6
tp5808
F0.9135172474836407
stp5809
.